ARM GAS  C:\Users\CuongLe\AppData\Local\Temp\ccO11J8q.s 			page 1


   1              		.cpu cortex-m4
   2              		.arch armv7e-m
   3              		.fpu fpv4-sp-d16
   4              		.eabi_attribute 27, 1
   5              		.eabi_attribute 28, 1
   6              		.eabi_attribute 20, 1
   7              		.eabi_attribute 21, 1
   8              		.eabi_attribute 23, 3
   9              		.eabi_attribute 24, 1
  10              		.eabi_attribute 25, 1
  11              		.eabi_attribute 26, 1
  12              		.eabi_attribute 30, 1
  13              		.eabi_attribute 34, 1
  14              		.eabi_attribute 18, 4
  15              		.file	"Computer.c"
  16              		.text
  17              	.Ltext0:
  18              		.cfi_sections	.debug_frame
  19              		.file 1 "Core/Src/Application/Src/Computer.c"
  20              		.section	.text.init,"ax",%progbits
  21              		.align	1
  22              		.syntax unified
  23              		.thumb
  24              		.thumb_func
  26              	init:
  27              	.LVL0:
  28              	.LFB288:
   1:Core/Src/Application/Src/Computer.c **** #include "Computer.h"
   2:Core/Src/Application/Src/Computer.c **** 
   3:Core/Src/Application/Src/Computer.c **** extern UART_HandleTypeDef huart3;
   4:Core/Src/Application/Src/Computer.c **** 
   5:Core/Src/Application/Src/Computer.c **** extern struct Estimator * estimator;
   6:Core/Src/Application/Src/Computer.c **** extern struct Motor * motor;
   7:Core/Src/Application/Src/Computer.c **** 
   8:Core/Src/Application/Src/Computer.c **** struct Active * AO_Computer;
   9:Core/Src/Application/Src/Computer.c **** struct Computer * computer;
  10:Core/Src/Application/Src/Computer.c **** 
  11:Core/Src/Application/Src/Computer.c **** static char tx_data[50];
  12:Core/Src/Application/Src/Computer.c **** 
  13:Core/Src/Application/Src/Computer.c **** static Status init (struct Computer * const self, Event const * const event) {
  29              		.loc 1 13 78 view -0
  30              		.cfi_startproc
  31              		@ args = 0, pretend = 0, frame = 0
  32              		@ frame_needed = 0, uses_anonymous_args = 0
  33              		@ link register save eliminated.
  14:Core/Src/Application/Src/Computer.c ****     Status status = TRAN_STATUS;
  34              		.loc 1 14 5 view .LVU1
  15:Core/Src/Application/Src/Computer.c ****     self->super.handler = (StateHandler) self->wait;
  35              		.loc 1 15 5 view .LVU2
  36              		.loc 1 15 46 is_stmt 0 view .LVU3
  37 0000 D0F8D430 		ldr	r3, [r0, #212]
  38              		.loc 1 15 25 view .LVU4
  39 0004 0360     		str	r3, [r0]
  16:Core/Src/Application/Src/Computer.c ****     return status;
  40              		.loc 1 16 5 is_stmt 1 view .LVU5
  17:Core/Src/Application/Src/Computer.c **** }
  41              		.loc 1 17 1 is_stmt 0 view .LVU6
ARM GAS  C:\Users\CuongLe\AppData\Local\Temp\ccO11J8q.s 			page 2


  42 0006 0020     		movs	r0, #0
  43              	.LVL1:
  44              		.loc 1 17 1 view .LVU7
  45 0008 7047     		bx	lr
  46              		.cfi_endproc
  47              	.LFE288:
  49              		.section	.text.sending,"ax",%progbits
  50              		.align	1
  51              		.syntax unified
  52              		.thumb
  53              		.thumb_func
  55              	sending:
  56              	.LVL2:
  57              	.LFB289:
  18:Core/Src/Application/Src/Computer.c **** 
  19:Core/Src/Application/Src/Computer.c **** static Status sending (struct Computer * const self, Event const * const event) {
  58              		.loc 1 19 81 is_stmt 1 view -0
  59              		.cfi_startproc
  60              		@ args = 0, pretend = 0, frame = 0
  61              		@ frame_needed = 0, uses_anonymous_args = 0
  62              		@ link register save eliminated.
  20:Core/Src/Application/Src/Computer.c ****     Status status;
  63              		.loc 1 20 5 view .LVU9
  21:Core/Src/Application/Src/Computer.c **** 
  22:Core/Src/Application/Src/Computer.c ****     switch (event->signal) {
  64              		.loc 1 22 5 view .LVU10
  65              		.loc 1 22 18 is_stmt 0 view .LVU11
  66 0000 0B88     		ldrh	r3, [r1]
  67              		.loc 1 22 5 view .LVU12
  68 0002 022B     		cmp	r3, #2
  69 0004 06D9     		bls	.L7
  70 0006 042B     		cmp	r3, #4
  71 0008 0AD1     		bne	.L6
  23:Core/Src/Application/Src/Computer.c ****         case ENTRY_SIG:
  24:Core/Src/Application/Src/Computer.c ****             status = HANDLED_STATUS;
  25:Core/Src/Application/Src/Computer.c ****             break;
  26:Core/Src/Application/Src/Computer.c **** 
  27:Core/Src/Application/Src/Computer.c ****         case SENSOR_SENDED_SIG:
  28:Core/Src/Application/Src/Computer.c ****             self->super.handler = (StateHandler)self->wait;
  72              		.loc 1 28 13 is_stmt 1 view .LVU13
  73              		.loc 1 28 53 is_stmt 0 view .LVU14
  74 000a D0F8D430 		ldr	r3, [r0, #212]
  75              		.loc 1 28 33 view .LVU15
  76 000e 0360     		str	r3, [r0]
  29:Core/Src/Application/Src/Computer.c ****             status = TRAN_STATUS;
  77              		.loc 1 29 13 is_stmt 1 view .LVU16
  78              	.LVL3:
  30:Core/Src/Application/Src/Computer.c ****             break;
  79              		.loc 1 30 13 view .LVU17
  29:Core/Src/Application/Src/Computer.c ****             status = TRAN_STATUS;
  80              		.loc 1 29 20 is_stmt 0 view .LVU18
  81 0010 0020     		movs	r0, #0
  82              	.LVL4:
  83              		.loc 1 30 13 view .LVU19
  84 0012 7047     		bx	lr
  85              	.LVL5:
  86              	.L7:
ARM GAS  C:\Users\CuongLe\AppData\Local\Temp\ccO11J8q.s 			page 3


  22:Core/Src/Application/Src/Computer.c ****         case ENTRY_SIG:
  87              		.loc 1 22 5 view .LVU20
  88 0014 1BB2     		sxth	r3, r3
  89 0016 0BB1     		cbz	r3, .L5
  90 0018 0120     		movs	r0, #1
  91              	.LVL6:
  22:Core/Src/Application/Src/Computer.c ****         case ENTRY_SIG:
  92              		.loc 1 22 5 view .LVU21
  93 001a 7047     		bx	lr
  94              	.LVL7:
  95              	.L5:
  31:Core/Src/Application/Src/Computer.c **** 
  32:Core/Src/Application/Src/Computer.c ****         case EXIT_SIG:
  33:Core/Src/Application/Src/Computer.c ****             status = HANDLED_STATUS;
  34:Core/Src/Application/Src/Computer.c ****             break;
  35:Core/Src/Application/Src/Computer.c ****         
  36:Core/Src/Application/Src/Computer.c ****         default:
  37:Core/Src/Application/Src/Computer.c ****             status = IGNORED_STATUS;
  96              		.loc 1 37 20 view .LVU22
  97 001c 0220     		movs	r0, #2
  98              	.LVL8:
  99              		.loc 1 37 20 view .LVU23
 100 001e 7047     		bx	lr
 101              	.LVL9:
 102              	.L6:
 103              		.loc 1 37 20 view .LVU24
 104 0020 0220     		movs	r0, #2
 105              	.LVL10:
  38:Core/Src/Application/Src/Computer.c ****             break;
  39:Core/Src/Application/Src/Computer.c ****     }
  40:Core/Src/Application/Src/Computer.c **** 
  41:Core/Src/Application/Src/Computer.c ****     return status;
 106              		.loc 1 41 5 is_stmt 1 view .LVU25
  42:Core/Src/Application/Src/Computer.c **** }
 107              		.loc 1 42 1 is_stmt 0 view .LVU26
 108 0022 7047     		bx	lr
 109              		.cfi_endproc
 110              	.LFE289:
 112              		.section	.text.new,"ax",%progbits
 113              		.align	1
 114              		.syntax unified
 115              		.thumb
 116              		.thumb_func
 118              	new:
 119              	.LVL11:
 120              	.LFB293:
  43:Core/Src/Application/Src/Computer.c **** 
  44:Core/Src/Application/Src/Computer.c **** static Status wait (struct Computer *const self, Event const * const event) {
  45:Core/Src/Application/Src/Computer.c ****     Status status;
  46:Core/Src/Application/Src/Computer.c ****     
  47:Core/Src/Application/Src/Computer.c ****     switch (event->signal) {
  48:Core/Src/Application/Src/Computer.c ****         case ENTRY_SIG:  
  49:Core/Src/Application/Src/Computer.c ****             status = HANDLED_STATUS;
  50:Core/Src/Application/Src/Computer.c ****             break;
  51:Core/Src/Application/Src/Computer.c **** 
  52:Core/Src/Application/Src/Computer.c ****         case STATE_UPDATED_SIG:
  53:Core/Src/Application/Src/Computer.c ****             static State stateTopic = {{0.0f}};
ARM GAS  C:\Users\CuongLe\AppData\Local\Temp\ccO11J8q.s 			page 4


  54:Core/Src/Application/Src/Computer.c ****             float32_t voltage = 0;
  55:Core/Src/Application/Src/Computer.c ****             BaseType_t is_success;
  56:Core/Src/Application/Src/Computer.c ****             is_success = xQueuePeek(estimator->statePublic, &stateTopic, 0);
  57:Core/Src/Application/Src/Computer.c ****             xQueuePeek(motor->voltagePublic, &voltage, 0);
  58:Core/Src/Application/Src/Computer.c **** 
  59:Core/Src/Application/Src/Computer.c ****             if(is_success) {
  60:Core/Src/Application/Src/Computer.c ****                 sprintf(tx_data,
  61:Core/Src/Application/Src/Computer.c ****                         "S%0.6f %0.6f %0.6f %0.6f\n",
  62:Core/Src/Application/Src/Computer.c ****                         voltage,
  63:Core/Src/Application/Src/Computer.c ****                         stateTopic.Motor.position,
  64:Core/Src/Application/Src/Computer.c ****                         stateTopic.Motor.velocity,
  65:Core/Src/Application/Src/Computer.c ****                         stateTopic.Motor.rawVel
  66:Core/Src/Application/Src/Computer.c ****                 );
  67:Core/Src/Application/Src/Computer.c ****                 SendBuffer(&huart3, tx_data);
  68:Core/Src/Application/Src/Computer.c **** 
  69:Core/Src/Application/Src/Computer.c ****                 self->super.handler = (StateHandler) self->sending;
  70:Core/Src/Application/Src/Computer.c ****                 status = TRAN_STATUS;
  71:Core/Src/Application/Src/Computer.c ****             }
  72:Core/Src/Application/Src/Computer.c ****             else {
  73:Core/Src/Application/Src/Computer.c ****                 status = HANDLED_STATUS;
  74:Core/Src/Application/Src/Computer.c ****             }
  75:Core/Src/Application/Src/Computer.c ****         
  76:Core/Src/Application/Src/Computer.c ****             break;
  77:Core/Src/Application/Src/Computer.c **** 
  78:Core/Src/Application/Src/Computer.c ****         case EXIT_SIG:
  79:Core/Src/Application/Src/Computer.c ****             status = HANDLED_STATUS;
  80:Core/Src/Application/Src/Computer.c ****             break;
  81:Core/Src/Application/Src/Computer.c ****         
  82:Core/Src/Application/Src/Computer.c ****         default:
  83:Core/Src/Application/Src/Computer.c ****             status = IGNORED_STATUS;
  84:Core/Src/Application/Src/Computer.c ****             break;
  85:Core/Src/Application/Src/Computer.c ****     }
  86:Core/Src/Application/Src/Computer.c ****     return status;
  87:Core/Src/Application/Src/Computer.c **** }
  88:Core/Src/Application/Src/Computer.c **** 
  89:Core/Src/Application/Src/Computer.c **** static void public(QueueHandle_t xQueue, const void * pvItemToQueue) {
  90:Core/Src/Application/Src/Computer.c **** 
  91:Core/Src/Application/Src/Computer.c ****     xQueueOverwrite(xQueue, pvItemToQueue);
  92:Core/Src/Application/Src/Computer.c **** }
  93:Core/Src/Application/Src/Computer.c **** 
  94:Core/Src/Application/Src/Computer.c **** static void publicFromISR(QueueHandle_t xQueue, const void * pvItemToQueue, BaseType_t *pxHigherPri
  95:Core/Src/Application/Src/Computer.c ****   xQueueOverwriteFromISR(xQueue, pvItemToQueue, pxHigherPriorityTaskWoken);
  96:Core/Src/Application/Src/Computer.c **** }
  97:Core/Src/Application/Src/Computer.c **** 
  98:Core/Src/Application/Src/Computer.c **** static void new (struct Computer * const self) {
 121              		.loc 1 98 48 is_stmt 1 view -0
 122              		.cfi_startproc
 123              		@ args = 0, pretend = 0, frame = 0
 124              		@ frame_needed = 0, uses_anonymous_args = 0
 125              		.loc 1 98 48 is_stmt 0 view .LVU28
 126 0000 10B5     		push	{r4, lr}
 127              	.LCFI0:
 128              		.cfi_def_cfa_offset 8
 129              		.cfi_offset 4, -8
 130              		.cfi_offset 14, -4
 131 0002 0446     		mov	r4, r0
  99:Core/Src/Application/Src/Computer.c ****     /* Assign methods */
ARM GAS  C:\Users\CuongLe\AppData\Local\Temp\ccO11J8q.s 			page 5


 100:Core/Src/Application/Src/Computer.c ****     self->init          = &init;
 132              		.loc 1 100 5 is_stmt 1 view .LVU29
 133              		.loc 1 100 25 is_stmt 0 view .LVU30
 134 0004 0E49     		ldr	r1, .L10
 135 0006 C0F8D010 		str	r1, [r0, #208]
 101:Core/Src/Application/Src/Computer.c ****     self->sending       = &sending;
 136              		.loc 1 101 5 is_stmt 1 view .LVU31
 137              		.loc 1 101 25 is_stmt 0 view .LVU32
 138 000a 0E4B     		ldr	r3, .L10+4
 139 000c C0F8D830 		str	r3, [r0, #216]
 102:Core/Src/Application/Src/Computer.c ****     self->wait          = &wait;
 140              		.loc 1 102 5 is_stmt 1 view .LVU33
 141              		.loc 1 102 25 is_stmt 0 view .LVU34
 142 0010 0D4B     		ldr	r3, .L10+8
 143 0012 C0F8D430 		str	r3, [r0, #212]
 103:Core/Src/Application/Src/Computer.c ****     self->public        = &public;
 144              		.loc 1 103 5 is_stmt 1 view .LVU35
 145              		.loc 1 103 25 is_stmt 0 view .LVU36
 146 0016 0D4B     		ldr	r3, .L10+12
 147 0018 C0F8DC30 		str	r3, [r0, #220]
 104:Core/Src/Application/Src/Computer.c ****     self->publicFromISR = &publicFromISR;
 148              		.loc 1 104 5 is_stmt 1 view .LVU37
 149              		.loc 1 104 25 is_stmt 0 view .LVU38
 150 001c 0C4B     		ldr	r3, .L10+16
 151 001e C0F8E030 		str	r3, [r0, #224]
 105:Core/Src/Application/Src/Computer.c **** 
 106:Core/Src/Application/Src/Computer.c ****     Active_new(&self->super, (StateHandler) &init);
 152              		.loc 1 106 5 is_stmt 1 view .LVU39
 153 0022 FFF7FEFF 		bl	Active_new
 154              	.LVL12:
 107:Core/Src/Application/Src/Computer.c **** 
 108:Core/Src/Application/Src/Computer.c ****     AO_Computer = &self->super;
 155              		.loc 1 108 5 view .LVU40
 156              		.loc 1 108 17 is_stmt 0 view .LVU41
 157 0026 0B4B     		ldr	r3, .L10+20
 158 0028 1C60     		str	r4, [r3]
 109:Core/Src/Application/Src/Computer.c ****     computer = self;
 159              		.loc 1 109 5 is_stmt 1 view .LVU42
 160              		.loc 1 109 14 is_stmt 0 view .LVU43
 161 002a 0B4B     		ldr	r3, .L10+24
 162 002c 1C60     		str	r4, [r3]
 110:Core/Src/Application/Src/Computer.c **** 
 111:Core/Src/Application/Src/Computer.c ****     /* Initialize Queue for Mailbox as subsribers, publishers */
 112:Core/Src/Application/Src/Computer.c ****     // self->state_sub = estimator->state_pub;
 113:Core/Src/Application/Src/Computer.c ****     self->received_message_sub = xQueueCreate(1, sizeof(RecivedMessage));
 163              		.loc 1 113 5 is_stmt 1 view .LVU44
 164              		.loc 1 113 34 is_stmt 0 view .LVU45
 165 002e 0022     		movs	r2, #0
 166 0030 0821     		movs	r1, #8
 167 0032 0120     		movs	r0, #1
 168 0034 FFF7FEFF 		bl	xQueueGenericCreate
 169              	.LVL13:
 170              		.loc 1 113 32 discriminator 1 view .LVU46
 171 0038 C4F8CC00 		str	r0, [r4, #204]
 114:Core/Src/Application/Src/Computer.c **** }
 172              		.loc 1 114 1 view .LVU47
 173 003c 10BD     		pop	{r4, pc}
ARM GAS  C:\Users\CuongLe\AppData\Local\Temp\ccO11J8q.s 			page 6


 174              	.LVL14:
 175              	.L11:
 176              		.loc 1 114 1 view .LVU48
 177 003e 00BF     		.align	2
 178              	.L10:
 179 0040 00000000 		.word	init
 180 0044 00000000 		.word	sending
 181 0048 00000000 		.word	wait
 182 004c 00000000 		.word	public
 183 0050 00000000 		.word	publicFromISR
 184 0054 00000000 		.word	AO_Computer
 185 0058 00000000 		.word	computer
 186              		.cfi_endproc
 187              	.LFE293:
 189              		.section	.text.publicFromISR,"ax",%progbits
 190              		.align	1
 191              		.syntax unified
 192              		.thumb
 193              		.thumb_func
 195              	publicFromISR:
 196              	.LVL15:
 197              	.LFB292:
  94:Core/Src/Application/Src/Computer.c ****   xQueueOverwriteFromISR(xQueue, pvItemToQueue, pxHigherPriorityTaskWoken);
 198              		.loc 1 94 116 is_stmt 1 view -0
 199              		.cfi_startproc
 200              		@ args = 0, pretend = 0, frame = 0
 201              		@ frame_needed = 0, uses_anonymous_args = 0
  94:Core/Src/Application/Src/Computer.c ****   xQueueOverwriteFromISR(xQueue, pvItemToQueue, pxHigherPriorityTaskWoken);
 202              		.loc 1 94 116 is_stmt 0 view .LVU50
 203 0000 08B5     		push	{r3, lr}
 204              	.LCFI1:
 205              		.cfi_def_cfa_offset 8
 206              		.cfi_offset 3, -8
 207              		.cfi_offset 14, -4
  95:Core/Src/Application/Src/Computer.c **** }
 208              		.loc 1 95 3 is_stmt 1 view .LVU51
 209 0002 0223     		movs	r3, #2
 210 0004 FFF7FEFF 		bl	xQueueGenericSendFromISR
 211              	.LVL16:
  96:Core/Src/Application/Src/Computer.c **** 
 212              		.loc 1 96 1 is_stmt 0 view .LVU52
 213 0008 08BD     		pop	{r3, pc}
 214              		.cfi_endproc
 215              	.LFE292:
 217              		.section	.text.public,"ax",%progbits
 218              		.align	1
 219              		.syntax unified
 220              		.thumb
 221              		.thumb_func
 223              	public:
 224              	.LVL17:
 225              	.LFB291:
  89:Core/Src/Application/Src/Computer.c **** 
 226              		.loc 1 89 70 is_stmt 1 view -0
 227              		.cfi_startproc
 228              		@ args = 0, pretend = 0, frame = 0
 229              		@ frame_needed = 0, uses_anonymous_args = 0
ARM GAS  C:\Users\CuongLe\AppData\Local\Temp\ccO11J8q.s 			page 7


  89:Core/Src/Application/Src/Computer.c **** 
 230              		.loc 1 89 70 is_stmt 0 view .LVU54
 231 0000 08B5     		push	{r3, lr}
 232              	.LCFI2:
 233              		.cfi_def_cfa_offset 8
 234              		.cfi_offset 3, -8
 235              		.cfi_offset 14, -4
  91:Core/Src/Application/Src/Computer.c **** }
 236              		.loc 1 91 5 is_stmt 1 view .LVU55
 237 0002 0223     		movs	r3, #2
 238 0004 0022     		movs	r2, #0
 239 0006 FFF7FEFF 		bl	xQueueGenericSend
 240              	.LVL18:
  92:Core/Src/Application/Src/Computer.c **** 
 241              		.loc 1 92 1 is_stmt 0 view .LVU56
 242 000a 08BD     		pop	{r3, pc}
 243              		.cfi_endproc
 244              	.LFE291:
 246              		.section	.rodata.wait.str1.4,"aMS",%progbits,1
 247              		.align	2
 248              	.LC0:
 249 0000 5325302E 		.ascii	"S%0.6f %0.6f %0.6f %0.6f\012\000"
 249      36662025 
 249      302E3666 
 249      2025302E 
 249      36662025 
 250              		.section	.text.wait,"ax",%progbits
 251              		.align	1
 252              		.syntax unified
 253              		.thumb
 254              		.thumb_func
 256              	wait:
 257              	.LVL19:
 258              	.LFB290:
  44:Core/Src/Application/Src/Computer.c ****     Status status;
 259              		.loc 1 44 77 is_stmt 1 view -0
 260              		.cfi_startproc
 261              		@ args = 0, pretend = 0, frame = 8
 262              		@ frame_needed = 0, uses_anonymous_args = 0
  45:Core/Src/Application/Src/Computer.c ****     
 263              		.loc 1 45 5 view .LVU58
  47:Core/Src/Application/Src/Computer.c ****         case ENTRY_SIG:  
 264              		.loc 1 47 5 view .LVU59
  47:Core/Src/Application/Src/Computer.c ****         case ENTRY_SIG:  
 265              		.loc 1 47 18 is_stmt 0 view .LVU60
 266 0000 0B88     		ldrh	r3, [r1]
  47:Core/Src/Application/Src/Computer.c ****         case ENTRY_SIG:  
 267              		.loc 1 47 5 view .LVU61
 268 0002 022B     		cmp	r3, #2
 269 0004 1DD9     		bls	.L25
  44:Core/Src/Application/Src/Computer.c ****     Status status;
 270              		.loc 1 44 77 view .LVU62
 271 0006 2DE9F047 		push	{r4, r5, r6, r7, r8, r9, r10, lr}
 272              	.LCFI3:
 273              		.cfi_def_cfa_offset 32
 274              		.cfi_offset 4, -32
 275              		.cfi_offset 5, -28
ARM GAS  C:\Users\CuongLe\AppData\Local\Temp\ccO11J8q.s 			page 8


 276              		.cfi_offset 6, -24
 277              		.cfi_offset 7, -20
 278              		.cfi_offset 8, -16
 279              		.cfi_offset 9, -12
 280              		.cfi_offset 10, -8
 281              		.cfi_offset 14, -4
 282 000a 88B0     		sub	sp, sp, #32
 283              	.LCFI4:
 284              		.cfi_def_cfa_offset 64
 285 000c 0446     		mov	r4, r0
  47:Core/Src/Application/Src/Computer.c ****         case ENTRY_SIG:  
 286              		.loc 1 47 5 view .LVU63
 287 000e 052B     		cmp	r3, #5
 288 0010 48D1     		bne	.L20
 289              	.LBB2:
  53:Core/Src/Application/Src/Computer.c ****             float32_t voltage = 0;
 290              		.loc 1 53 13 is_stmt 1 view .LVU64
  54:Core/Src/Application/Src/Computer.c ****             BaseType_t is_success;
 291              		.loc 1 54 13 view .LVU65
  54:Core/Src/Application/Src/Computer.c ****             BaseType_t is_success;
 292              		.loc 1 54 23 is_stmt 0 view .LVU66
 293 0012 0023     		movs	r3, #0
 294 0014 0793     		str	r3, [sp, #28]	@ float
  55:Core/Src/Application/Src/Computer.c ****             is_success = xQueuePeek(estimator->statePublic, &stateTopic, 0);
 295              		.loc 1 55 13 is_stmt 1 view .LVU67
  56:Core/Src/Application/Src/Computer.c ****             xQueuePeek(motor->voltagePublic, &voltage, 0);
 296              		.loc 1 56 13 view .LVU68
  56:Core/Src/Application/Src/Computer.c ****             xQueuePeek(motor->voltagePublic, &voltage, 0);
 297              		.loc 1 56 46 is_stmt 0 view .LVU69
 298 0016 244B     		ldr	r3, .L27
 299 0018 1B68     		ldr	r3, [r3]
  56:Core/Src/Application/Src/Computer.c ****             xQueuePeek(motor->voltagePublic, &voltage, 0);
 300              		.loc 1 56 26 view .LVU70
 301 001a 0022     		movs	r2, #0
 302 001c 2349     		ldr	r1, .L27+4
 303              	.LVL20:
  56:Core/Src/Application/Src/Computer.c ****             xQueuePeek(motor->voltagePublic, &voltage, 0);
 304              		.loc 1 56 26 view .LVU71
 305 001e D3F8D400 		ldr	r0, [r3, #212]
 306              	.LVL21:
  56:Core/Src/Application/Src/Computer.c ****             xQueuePeek(motor->voltagePublic, &voltage, 0);
 307              		.loc 1 56 26 view .LVU72
 308 0022 FFF7FEFF 		bl	xQueuePeek
 309              	.LVL22:
 310 0026 0546     		mov	r5, r0
 311              	.LVL23:
  57:Core/Src/Application/Src/Computer.c **** 
 312              		.loc 1 57 13 is_stmt 1 view .LVU73
  57:Core/Src/Application/Src/Computer.c **** 
 313              		.loc 1 57 29 is_stmt 0 view .LVU74
 314 0028 214B     		ldr	r3, .L27+8
 315 002a 1B68     		ldr	r3, [r3]
  57:Core/Src/Application/Src/Computer.c **** 
 316              		.loc 1 57 13 view .LVU75
 317 002c 0022     		movs	r2, #0
 318 002e 07A9     		add	r1, sp, #28
 319 0030 D3F8D000 		ldr	r0, [r3, #208]
ARM GAS  C:\Users\CuongLe\AppData\Local\Temp\ccO11J8q.s 			page 9


 320              	.LVL24:
  57:Core/Src/Application/Src/Computer.c **** 
 321              		.loc 1 57 13 view .LVU76
 322 0034 FFF7FEFF 		bl	xQueuePeek
 323              	.LVL25:
  59:Core/Src/Application/Src/Computer.c ****                 sprintf(tx_data,
 324              		.loc 1 59 13 is_stmt 1 view .LVU77
  59:Core/Src/Application/Src/Computer.c ****                 sprintf(tx_data,
 325              		.loc 1 59 15 is_stmt 0 view .LVU78
 326 0038 3DB9     		cbnz	r5, .L26
  73:Core/Src/Application/Src/Computer.c ****             }
 327              		.loc 1 73 24 view .LVU79
 328 003a 0120     		movs	r0, #1
 329              	.LVL26:
 330              	.L18:
  73:Core/Src/Application/Src/Computer.c ****             }
 331              		.loc 1 73 24 view .LVU80
 332              	.LBE2:
  86:Core/Src/Application/Src/Computer.c **** }
 333              		.loc 1 86 5 is_stmt 1 view .LVU81
  87:Core/Src/Application/Src/Computer.c **** 
 334              		.loc 1 87 1 is_stmt 0 view .LVU82
 335 003c 08B0     		add	sp, sp, #32
 336              	.LCFI5:
 337              		.cfi_def_cfa_offset 32
 338              		@ sp needed
 339 003e BDE8F087 		pop	{r4, r5, r6, r7, r8, r9, r10, pc}
 340              	.LVL27:
 341              	.L25:
 342              	.LCFI6:
 343              		.cfi_def_cfa_offset 0
 344              		.cfi_restore 4
 345              		.cfi_restore 5
 346              		.cfi_restore 6
 347              		.cfi_restore 7
 348              		.cfi_restore 8
 349              		.cfi_restore 9
 350              		.cfi_restore 10
 351              		.cfi_restore 14
  47:Core/Src/Application/Src/Computer.c ****         case ENTRY_SIG:  
 352              		.loc 1 47 5 view .LVU83
 353 0042 1BB2     		sxth	r3, r3
 354 0044 63B3     		cbz	r3, .L19
 355 0046 0120     		movs	r0, #1
 356              	.LVL28:
  47:Core/Src/Application/Src/Computer.c ****         case ENTRY_SIG:  
 357              		.loc 1 47 5 view .LVU84
 358 0048 7047     		bx	lr
 359              	.LVL29:
 360              	.L26:
 361              	.LCFI7:
 362              		.cfi_def_cfa_offset 64
 363              		.cfi_offset 4, -32
 364              		.cfi_offset 5, -28
 365              		.cfi_offset 6, -24
 366              		.cfi_offset 7, -20
 367              		.cfi_offset 8, -16
ARM GAS  C:\Users\CuongLe\AppData\Local\Temp\ccO11J8q.s 			page 10


 368              		.cfi_offset 9, -12
 369              		.cfi_offset 10, -8
 370              		.cfi_offset 14, -4
 371              	.LBB3:
  60:Core/Src/Application/Src/Computer.c ****                         "S%0.6f %0.6f %0.6f %0.6f\n",
 372              		.loc 1 60 17 is_stmt 1 view .LVU85
  63:Core/Src/Application/Src/Computer.c ****                         stateTopic.Motor.velocity,
 373              		.loc 1 63 41 is_stmt 0 view .LVU86
 374 004a 184B     		ldr	r3, .L27+4
 375 004c D3F80C80 		ldr	r8, [r3, #12]	@ float
  64:Core/Src/Application/Src/Computer.c ****                         stateTopic.Motor.rawVel
 376              		.loc 1 64 41 view .LVU87
 377 0050 D3F81090 		ldr	r9, [r3, #16]	@ float
  65:Core/Src/Application/Src/Computer.c ****                 );
 378              		.loc 1 65 41 view .LVU88
 379 0054 D3F804A0 		ldr	r10, [r3, #4]	@ float
  60:Core/Src/Application/Src/Computer.c ****                         "S%0.6f %0.6f %0.6f %0.6f\n",
 380              		.loc 1 60 17 view .LVU89
 381 0058 0798     		ldr	r0, [sp, #28]	@ float
 382 005a FFF7FEFF 		bl	__aeabi_f2d
 383              	.LVL30:
 384 005e 0646     		mov	r6, r0
 385 0060 0F46     		mov	r7, r1
 386 0062 144D     		ldr	r5, .L27+12
 387              	.LVL31:
  60:Core/Src/Application/Src/Computer.c ****                         "S%0.6f %0.6f %0.6f %0.6f\n",
 388              		.loc 1 60 17 view .LVU90
 389 0064 5046     		mov	r0, r10	@ float
 390 0066 FFF7FEFF 		bl	__aeabi_f2d
 391              	.LVL32:
 392 006a CDE90401 		strd	r0, [sp, #16]
 393 006e 4846     		mov	r0, r9	@ float
 394 0070 FFF7FEFF 		bl	__aeabi_f2d
 395              	.LVL33:
 396 0074 CDE90201 		strd	r0, [sp, #8]
 397 0078 4046     		mov	r0, r8	@ float
 398 007a FFF7FEFF 		bl	__aeabi_f2d
 399              	.LVL34:
 400 007e CDE90001 		strd	r0, [sp]
 401 0082 3246     		mov	r2, r6
 402 0084 3B46     		mov	r3, r7
 403 0086 0C49     		ldr	r1, .L27+16
 404 0088 2846     		mov	r0, r5
 405 008a FFF7FEFF 		bl	sprintf_
 406              	.LVL35:
  67:Core/Src/Application/Src/Computer.c **** 
 407              		.loc 1 67 17 is_stmt 1 view .LVU91
 408 008e 2946     		mov	r1, r5
 409 0090 0A48     		ldr	r0, .L27+20
 410 0092 FFF7FEFF 		bl	SendBuffer
 411              	.LVL36:
  69:Core/Src/Application/Src/Computer.c ****                 status = TRAN_STATUS;
 412              		.loc 1 69 17 view .LVU92
  69:Core/Src/Application/Src/Computer.c ****                 status = TRAN_STATUS;
 413              		.loc 1 69 58 is_stmt 0 view .LVU93
 414 0096 D4F8D830 		ldr	r3, [r4, #216]
  69:Core/Src/Application/Src/Computer.c ****                 status = TRAN_STATUS;
ARM GAS  C:\Users\CuongLe\AppData\Local\Temp\ccO11J8q.s 			page 11


 415              		.loc 1 69 37 view .LVU94
 416 009a 2360     		str	r3, [r4]
  70:Core/Src/Application/Src/Computer.c ****             }
 417              		.loc 1 70 17 is_stmt 1 view .LVU95
 418              	.LVL37:
  70:Core/Src/Application/Src/Computer.c ****             }
 419              		.loc 1 70 24 is_stmt 0 view .LVU96
 420 009c 0020     		movs	r0, #0
 421 009e CDE7     		b	.L18
 422              	.LVL38:
 423              	.L19:
 424              	.LCFI8:
 425              		.cfi_def_cfa_offset 0
 426              		.cfi_restore 4
 427              		.cfi_restore 5
 428              		.cfi_restore 6
 429              		.cfi_restore 7
 430              		.cfi_restore 8
 431              		.cfi_restore 9
 432              		.cfi_restore 10
 433              		.cfi_restore 14
  83:Core/Src/Application/Src/Computer.c ****             break;
 434              		.loc 1 83 20 view .LVU97
 435 00a0 0220     		movs	r0, #2
 436              	.LVL39:
  83:Core/Src/Application/Src/Computer.c ****             break;
 437              		.loc 1 83 20 view .LVU98
 438              	.LBE3:
  86:Core/Src/Application/Src/Computer.c **** }
 439              		.loc 1 86 5 is_stmt 1 view .LVU99
  87:Core/Src/Application/Src/Computer.c **** 
 440              		.loc 1 87 1 is_stmt 0 view .LVU100
 441 00a2 7047     		bx	lr
 442              	.LVL40:
 443              	.L20:
 444              	.LCFI9:
 445              		.cfi_def_cfa_offset 64
 446              		.cfi_offset 4, -32
 447              		.cfi_offset 5, -28
 448              		.cfi_offset 6, -24
 449              		.cfi_offset 7, -20
 450              		.cfi_offset 8, -16
 451              		.cfi_offset 9, -12
 452              		.cfi_offset 10, -8
 453              		.cfi_offset 14, -4
 454              	.LBB4:
  83:Core/Src/Application/Src/Computer.c ****             break;
 455              		.loc 1 83 20 view .LVU101
 456 00a4 0220     		movs	r0, #2
 457              	.LVL41:
  83:Core/Src/Application/Src/Computer.c ****             break;
 458              		.loc 1 83 20 view .LVU102
 459 00a6 C9E7     		b	.L18
 460              	.L28:
 461              		.align	2
 462              	.L27:
 463 00a8 00000000 		.word	estimator
ARM GAS  C:\Users\CuongLe\AppData\Local\Temp\ccO11J8q.s 			page 12


 464 00ac 00000000 		.word	stateTopic.0
 465 00b0 00000000 		.word	motor
 466 00b4 00000000 		.word	tx_data
 467 00b8 00000000 		.word	.LC0
 468 00bc 00000000 		.word	huart3
 469              	.LBE4:
 470              		.cfi_endproc
 471              	.LFE290:
 473              		.section	.bss.stateTopic.0,"aw",%nobits
 474              		.align	2
 477              	stateTopic.0:
 478 0000 00000000 		.space	72
 478      00000000 
 478      00000000 
 478      00000000 
 478      00000000 
 479              		.global	Computer
 480              		.section	.rodata.Computer,"a"
 481              		.align	2
 484              	Computer:
 485 0000 00000000 		.word	new
 486              		.section	.bss.tx_data,"aw",%nobits
 487              		.align	2
 490              	tx_data:
 491 0000 00000000 		.space	50
 491      00000000 
 491      00000000 
 491      00000000 
 491      00000000 
 492              		.global	computer
 493              		.section	.bss.computer,"aw",%nobits
 494              		.align	2
 497              	computer:
 498 0000 00000000 		.space	4
 499              		.global	AO_Computer
 500              		.section	.bss.AO_Computer,"aw",%nobits
 501              		.align	2
 504              	AO_Computer:
 505 0000 00000000 		.space	4
 506              		.text
 507              	.Letext0:
 508              		.file 2 "D:/DATN/InvertedPendulum/Tool/ArmGnuToolchain/arm-none-eabi/include/machine/_default_type
 509              		.file 3 "D:/DATN/InvertedPendulum/Tool/ArmGnuToolchain/arm-none-eabi/include/sys/_stdint.h"
 510              		.file 4 "Drivers/CMSIS/Device/ST/STM32F4xx/Include/stm32f407xx.h"
 511              		.file 5 "Drivers/STM32F4xx_HAL_Driver/Inc/stm32f4xx_hal_def.h"
 512              		.file 6 "Drivers/STM32F4xx_HAL_Driver/Inc/stm32f4xx_hal_dma.h"
 513              		.file 7 "Drivers/STM32F4xx_HAL_Driver/Inc/stm32f4xx_hal_uart.h"
 514              		.file 8 "Middlewares/Third_Party/ARM/FreeRTOS/portable/GCC/ARM_CM4F/portmacro.h"
 515              		.file 9 "Middlewares/Third_Party/ARM/FreeRTOS/include/FreeRTOS.h"
 516              		.file 10 "Middlewares/Third_Party/ARM/FreeRTOS/include/task.h"
 517              		.file 11 "Middlewares/Third_Party/ARM/FreeRTOS/include/queue.h"
 518              		.file 12 "Middlewares/ST/ARM/DSP/Inc/arm_math.h"
 519              		.file 13 "Core/Src/Application/Inc/Topic.h"
 520              		.file 14 "Core/Src/Application/Inc/ActiveObject.h"
 521              		.file 15 "Core/Src/Common/Inc/dsp.h"
 522              		.file 16 "Core/Src/Application/Inc/Estimator.h"
 523              		.file 17 "Core/Src/Application/Inc/Motor.h"
ARM GAS  C:\Users\CuongLe\AppData\Local\Temp\ccO11J8q.s 			page 13


 524              		.file 18 "Core/Src/Application/Inc/Computer.h"
 525              		.file 19 "Core/Inc/printf.h"
 526              		.file 20 "Core/Src/Drivers/Inc/usart.h"
ARM GAS  C:\Users\CuongLe\AppData\Local\Temp\ccO11J8q.s 			page 14

