ARM GAS  C:\Users\CuongLe\AppData\Local\Temp\ccH0sClq.s 			page 1


   1              		.cpu cortex-m4
   2              		.arch armv7e-m
   3              		.fpu fpv4-sp-d16
   4              		.eabi_attribute 27, 1
   5              		.eabi_attribute 28, 1
   6              		.eabi_attribute 20, 1
   7              		.eabi_attribute 21, 1
   8              		.eabi_attribute 23, 3
   9              		.eabi_attribute 24, 1
  10              		.eabi_attribute 25, 1
  11              		.eabi_attribute 26, 1
  12              		.eabi_attribute 30, 1
  13              		.eabi_attribute 34, 1
  14              		.eabi_attribute 18, 4
  15              		.file	"dsp.c"
  16              		.text
  17              	.Ltext0:
  18              		.cfi_sections	.debug_frame
  19              		.file 1 "Core/Src/Common/Src/dsp.c"
  20              		.section	.text.ConvertAngle,"ax",%progbits
  21              		.align	1
  22              		.syntax unified
  23              		.thumb
  24              		.thumb_func
  26              	ConvertAngle:
  27              	.LVL0:
  28              	.LFB157:
   1:Core/Src/Common/Src/dsp.c **** #include "dsp.h"
   2:Core/Src/Common/Src/dsp.c **** 
   3:Core/Src/Common/Src/dsp.c **** 
   4:Core/Src/Common/Src/dsp.c **** extern float32_t MotorCoefficients[MOTOR_FILTER_STAGES_NUM * COEFFICIENT_NUMBER];
   5:Core/Src/Common/Src/dsp.c **** extern float32_t PendulumCoefficients[MOTOR_FILTER_STAGES_NUM * COEFFICIENT_NUMBER];
   6:Core/Src/Common/Src/dsp.c **** 
   7:Core/Src/Common/Src/dsp.c **** 
   8:Core/Src/Common/Src/dsp.c **** static void Differentiator_apply(Differentiator * const self, float32_t * input, float32_t * output
   9:Core/Src/Common/Src/dsp.c ****     float32_t diff_x;
  10:Core/Src/Common/Src/dsp.c ****     float32_t filtered_diff_x;
  11:Core/Src/Common/Src/dsp.c ****     float32_t x = *input;
  12:Core/Src/Common/Src/dsp.c **** 
  13:Core/Src/Common/Src/dsp.c ****     /*Estimate first derivative*/
  14:Core/Src/Common/Src/dsp.c ****     diff_x = (3.0f*x - 4.0f*self->preState[0] + 1.0f*self->preState[1]) / (2.0f * self->Ts);
  15:Core/Src/Common/Src/dsp.c **** 
  16:Core/Src/Common/Src/dsp.c ****     self->preState[1] = self->preState[0]; self->preState[0] = x;
  17:Core/Src/Common/Src/dsp.c ****     
  18:Core/Src/Common/Src/dsp.c ****     /*Filter estimated first derivative*/
  19:Core/Src/Common/Src/dsp.c ****     self->filter.numStages = 1;
  20:Core/Src/Common/Src/dsp.c ****     arm_biquad_cascade_df2T_f32(&self->filter, &diff_x, &filtered_diff_x, 1);
  21:Core/Src/Common/Src/dsp.c **** 
  22:Core/Src/Common/Src/dsp.c ****     /*Return output value*/
  23:Core/Src/Common/Src/dsp.c ****     *output = filtered_diff_x;
  24:Core/Src/Common/Src/dsp.c ****     *rawOutput = diff_x;
  25:Core/Src/Common/Src/dsp.c **** }
  26:Core/Src/Common/Src/dsp.c **** 
  27:Core/Src/Common/Src/dsp.c **** 
  28:Core/Src/Common/Src/dsp.c **** static void Differentiator_new(Differentiator * const self, float32_t SampleTime, uint8_t num_state
  29:Core/Src/Common/Src/dsp.c ****     self->apply = &Differentiator_apply;
  30:Core/Src/Common/Src/dsp.c **** 
ARM GAS  C:\Users\CuongLe\AppData\Local\Temp\ccH0sClq.s 			page 2


  31:Core/Src/Common/Src/dsp.c ****     self->Ts = SampleTime;
  32:Core/Src/Common/Src/dsp.c **** 
  33:Core/Src/Common/Src/dsp.c ****     self->filter_state = (float32_t *) pvPortMalloc( (2U * (uint32_t) num_states) * sizeof(float32_
  34:Core/Src/Common/Src/dsp.c **** 
  35:Core/Src/Common/Src/dsp.c ****     arm_biquad_cascade_df2T_init_f32(&self->filter, num_states, filter_coeffs, self->filter_state);
  36:Core/Src/Common/Src/dsp.c **** }
  37:Core/Src/Common/Src/dsp.c **** 
  38:Core/Src/Common/Src/dsp.c **** 
  39:Core/Src/Common/Src/dsp.c **** static void ConvertAngle (DSP * const self, Encoder const * const encoder_topic) {
  29              		.loc 1 39 82 view -0
  30              		.cfi_startproc
  31              		@ args = 0, pretend = 0, frame = 0
  32              		@ frame_needed = 0, uses_anonymous_args = 0
  33              		@ link register save eliminated.
  40:Core/Src/Common/Src/dsp.c ****     self->motor_angle       = self->motor_resolution * encoder_topic->motorCnt;
  34              		.loc 1 40 5 view .LVU1
  35              		.loc 1 40 35 is_stmt 0 view .LVU2
  36 0000 90ED017A 		vldr.32	s14, [r0, #4]
  37              		.loc 1 40 54 view .LVU3
  38 0004 D1ED017A 		vldr.32	s15, [r1, #4]	@ int
  39 0008 F8EEE77A 		vcvt.f32.s32	s15, s15
  40 000c 67EE877A 		vmul.f32	s15, s15, s14
  41              		.loc 1 40 29 view .LVU4
  42 0010 C0ED037A 		vstr.32	s15, [r0, #12]
  41:Core/Src/Common/Src/dsp.c ****     self->pendulum_angle    = self->pendulum_resolution * encoder_topic->pendulumCnt;
  43              		.loc 1 41 5 is_stmt 1 view .LVU5
  44              		.loc 1 41 35 is_stmt 0 view .LVU6
  45 0014 90ED027A 		vldr.32	s14, [r0, #8]
  46              		.loc 1 41 72 view .LVU7
  47 0018 B1F90030 		ldrsh	r3, [r1]
  48 001c 07EE903A 		vmov	s15, r3	@ int
  49              		.loc 1 41 57 view .LVU8
  50 0020 F8EEE77A 		vcvt.f32.s32	s15, s15
  51 0024 67EE877A 		vmul.f32	s15, s15, s14
  52              		.loc 1 41 29 view .LVU9
  53 0028 C0ED047A 		vstr.32	s15, [r0, #16]
  42:Core/Src/Common/Src/dsp.c **** }
  54              		.loc 1 42 1 view .LVU10
  55 002c 7047     		bx	lr
  56              		.cfi_endproc
  57              	.LFE157:
  59              		.section	.text.filter,"ax",%progbits
  60              		.align	1
  61              		.syntax unified
  62              		.thumb
  63              		.thumb_func
  65              	filter:
  66              	.LVL1:
  67              	.LFB158:
  43:Core/Src/Common/Src/dsp.c **** 
  44:Core/Src/Common/Src/dsp.c **** static void filter (DSP * const self) {
  68              		.loc 1 44 39 is_stmt 1 view -0
  69              		.cfi_startproc
  70              		@ args = 0, pretend = 0, frame = 0
  71              		@ frame_needed = 0, uses_anonymous_args = 0
  72              		.loc 1 44 39 is_stmt 0 view .LVU12
  73 0000 38B5     		push	{r3, r4, r5, lr}
ARM GAS  C:\Users\CuongLe\AppData\Local\Temp\ccH0sClq.s 			page 3


  74              	.LCFI0:
  75              		.cfi_def_cfa_offset 16
  76              		.cfi_offset 3, -16
  77              		.cfi_offset 4, -12
  78              		.cfi_offset 5, -8
  79              		.cfi_offset 14, -4
  80 0002 0446     		mov	r4, r0
  45:Core/Src/Common/Src/dsp.c ****     self->motor_differentiator->apply(
  81              		.loc 1 45 5 is_stmt 1 view .LVU13
  82              		.loc 1 45 9 is_stmt 0 view .LVU14
  83 0004 C06E     		ldr	r0, [r0, #108]
  84              	.LVL2:
  85              		.loc 1 45 31 view .LVU15
  86 0006 856A     		ldr	r5, [r0, #40]
  87              		.loc 1 45 5 view .LVU16
  88 0008 04F11403 		add	r3, r4, #20
  89 000c 04F11C02 		add	r2, r4, #28
  90 0010 04F10C01 		add	r1, r4, #12
  91 0014 A847     		blx	r5
  92              	.LVL3:
  46:Core/Src/Common/Src/dsp.c ****         self->motor_differentiator,
  47:Core/Src/Common/Src/dsp.c ****         &self->motor_angle,
  48:Core/Src/Common/Src/dsp.c ****         &self->motor_velocity,
  49:Core/Src/Common/Src/dsp.c ****         &self->raw_motor_velocity
  50:Core/Src/Common/Src/dsp.c ****     );
  51:Core/Src/Common/Src/dsp.c **** 
  52:Core/Src/Common/Src/dsp.c ****     self->pendulum_differentiator->apply(
  93              		.loc 1 52 5 is_stmt 1 view .LVU17
  94              		.loc 1 52 9 is_stmt 0 view .LVU18
  95 0016 206F     		ldr	r0, [r4, #112]
  96              		.loc 1 52 34 view .LVU19
  97 0018 856A     		ldr	r5, [r0, #40]
  98              		.loc 1 52 5 view .LVU20
  99 001a 04F11803 		add	r3, r4, #24
 100 001e 04F12002 		add	r2, r4, #32
 101 0022 04F11001 		add	r1, r4, #16
 102 0026 A847     		blx	r5
 103              	.LVL4:
  53:Core/Src/Common/Src/dsp.c ****         self->pendulum_differentiator,
  54:Core/Src/Common/Src/dsp.c ****         &self->pendulum_angle,
  55:Core/Src/Common/Src/dsp.c ****         &self->pendulum_velocity,
  56:Core/Src/Common/Src/dsp.c ****         &self->raw_pendulum_velocity
  57:Core/Src/Common/Src/dsp.c ****     );
  58:Core/Src/Common/Src/dsp.c **** }
 104              		.loc 1 58 1 view .LVU21
 105 0028 38BD     		pop	{r3, r4, r5, pc}
 106              		.loc 1 58 1 view .LVU22
 107              		.cfi_endproc
 108              	.LFE158:
 110              		.section	.text.estimate,"ax",%progbits
 111              		.align	1
 112              		.syntax unified
 113              		.thumb
 114              		.thumb_func
 116              	estimate:
 117              	.LVL5:
 118              	.LFB159:
ARM GAS  C:\Users\CuongLe\AppData\Local\Temp\ccH0sClq.s 			page 4


  59:Core/Src/Common/Src/dsp.c **** 
  60:Core/Src/Common/Src/dsp.c **** static void estimate (DSP * const self) {
 119              		.loc 1 60 41 is_stmt 1 view -0
 120              		.cfi_startproc
 121              		@ args = 0, pretend = 0, frame = 0
 122              		@ frame_needed = 0, uses_anonymous_args = 0
 123              		@ link register save eliminated.
  61:Core/Src/Common/Src/dsp.c ****     self->motor_state.position  = self->motor_angle;
 124              		.loc 1 61 5 view .LVU24
 125              		.loc 1 61 39 is_stmt 0 view .LVU25
 126 0000 90ED037A 		vldr.32	s14, [r0, #12]
 127              		.loc 1 61 33 view .LVU26
 128 0004 80ED0C7A 		vstr.32	s14, [r0, #48]
  62:Core/Src/Common/Src/dsp.c ****     self->motor_state.velocity  = self->motor_velocity;
 129              		.loc 1 62 5 is_stmt 1 view .LVU27
 130              		.loc 1 62 39 is_stmt 0 view .LVU28
 131 0008 D0ED077A 		vldr.32	s15, [r0, #28]
 132              		.loc 1 62 33 view .LVU29
 133 000c C0ED0D7A 		vstr.32	s15, [r0, #52]
  63:Core/Src/Common/Src/dsp.c ****     self->motor_state.rawVel    = self->raw_motor_velocity;
 134              		.loc 1 63 5 is_stmt 1 view .LVU30
 135              		.loc 1 63 39 is_stmt 0 view .LVU31
 136 0010 4369     		ldr	r3, [r0, #20]	@ float
 137              		.loc 1 63 33 view .LVU32
 138 0012 8362     		str	r3, [r0, #40]	@ float
  64:Core/Src/Common/Src/dsp.c **** 
  65:Core/Src/Common/Src/dsp.c ****     self->pendulum_state.position   = self->pendulum_angle;
 139              		.loc 1 65 5 is_stmt 1 view .LVU33
 140              		.loc 1 65 43 is_stmt 0 view .LVU34
 141 0014 0369     		ldr	r3, [r0, #16]	@ float
 142              		.loc 1 65 37 view .LVU35
 143 0016 0366     		str	r3, [r0, #96]	@ float
  66:Core/Src/Common/Src/dsp.c ****     self->pendulum_state.velocity   = self->pendulum_velocity;
 144              		.loc 1 66 5 is_stmt 1 view .LVU36
 145              		.loc 1 66 43 is_stmt 0 view .LVU37
 146 0018 036A     		ldr	r3, [r0, #32]	@ float
 147              		.loc 1 66 37 view .LVU38
 148 001a 4366     		str	r3, [r0, #100]	@ float
  67:Core/Src/Common/Src/dsp.c ****     self->pendulum_state.rawVel     = self->raw_pendulum_velocity;
 149              		.loc 1 67 5 is_stmt 1 view .LVU39
 150              		.loc 1 67 43 is_stmt 0 view .LVU40
 151 001c 8369     		ldr	r3, [r0, #24]	@ float
 152              		.loc 1 67 37 view .LVU41
 153 001e 8365     		str	r3, [r0, #88]	@ float
  68:Core/Src/Common/Src/dsp.c **** 
  69:Core/Src/Common/Src/dsp.c ****     self->cart_state.position = self->motor_angle * self->gear_ratio;
 154              		.loc 1 69 5 is_stmt 1 view .LVU42
 155              		.loc 1 69 57 is_stmt 0 view .LVU43
 156 0020 D0ED006A 		vldr.32	s13, [r0]
 157              		.loc 1 69 51 view .LVU44
 158 0024 27EE267A 		vmul.f32	s14, s14, s13
 159              		.loc 1 69 31 view .LVU45
 160 0028 80ED127A 		vstr.32	s14, [r0, #72]
  70:Core/Src/Common/Src/dsp.c ****     self->cart_state.velocity = self->motor_velocity * self->gear_ratio;
 161              		.loc 1 70 5 is_stmt 1 view .LVU46
 162              		.loc 1 70 54 is_stmt 0 view .LVU47
 163 002c 67EEA67A 		vmul.f32	s15, s15, s13
ARM GAS  C:\Users\CuongLe\AppData\Local\Temp\ccH0sClq.s 			page 5


 164              		.loc 1 70 31 view .LVU48
 165 0030 C0ED137A 		vstr.32	s15, [r0, #76]
  71:Core/Src/Common/Src/dsp.c **** }
 166              		.loc 1 71 1 view .LVU49
 167 0034 7047     		bx	lr
 168              		.cfi_endproc
 169              	.LFE159:
 171              		.section	.text.procesNewData,"ax",%progbits
 172              		.align	1
 173              		.syntax unified
 174              		.thumb
 175              		.thumb_func
 177              	procesNewData:
 178              	.LVL6:
 179              	.LFB160:
  72:Core/Src/Common/Src/dsp.c **** 
  73:Core/Src/Common/Src/dsp.c **** static void procesNewData (DSP * const self, Encoder const * const encoder_topic, State * const sta
 180              		.loc 1 73 110 is_stmt 1 view -0
 181              		.cfi_startproc
 182              		@ args = 0, pretend = 0, frame = 0
 183              		@ frame_needed = 0, uses_anonymous_args = 0
 184              		.loc 1 73 110 is_stmt 0 view .LVU51
 185 0000 38B5     		push	{r3, r4, r5, lr}
 186              	.LCFI1:
 187              		.cfi_def_cfa_offset 16
 188              		.cfi_offset 3, -16
 189              		.cfi_offset 4, -12
 190              		.cfi_offset 5, -8
 191              		.cfi_offset 14, -4
 192 0002 0446     		mov	r4, r0
 193 0004 1546     		mov	r5, r2
  74:Core/Src/Common/Src/dsp.c ****     ConvertAngle(self, encoder_topic);
 194              		.loc 1 74 5 is_stmt 1 view .LVU52
 195 0006 FFF7FEFF 		bl	ConvertAngle
 196              	.LVL7:
  75:Core/Src/Common/Src/dsp.c **** 
  76:Core/Src/Common/Src/dsp.c ****     filter(self);
 197              		.loc 1 76 5 view .LVU53
 198 000a 2046     		mov	r0, r4
 199 000c FFF7FEFF 		bl	filter
 200              	.LVL8:
  77:Core/Src/Common/Src/dsp.c **** 
  78:Core/Src/Common/Src/dsp.c ****     estimate(self);
 201              		.loc 1 78 5 view .LVU54
 202 0010 2046     		mov	r0, r4
 203 0012 FFF7FEFF 		bl	estimate
 204              	.LVL9:
  79:Core/Src/Common/Src/dsp.c **** 
  80:Core/Src/Common/Src/dsp.c ****     state_topic->Motor      = self->motor_state;
 205              		.loc 1 80 5 view .LVU55
 206              		.loc 1 80 29 is_stmt 0 view .LVU56
 207 0016 AC46     		mov	ip, r5
 208 0018 04F1240E 		add	lr, r4, #36
 209 001c BEE80F00 		ldmia	lr!, {r0, r1, r2, r3}
 210 0020 ACE80F00 		stmia	ip!, {r0, r1, r2, r3}
 211 0024 9EE80300 		ldm	lr, {r0, r1}
 212 0028 8CE80300 		stm	ip, {r0, r1}
ARM GAS  C:\Users\CuongLe\AppData\Local\Temp\ccH0sClq.s 			page 6


  81:Core/Src/Common/Src/dsp.c ****     state_topic->Cart       = self->cart_state;
 213              		.loc 1 81 5 is_stmt 1 view .LVU57
 214              		.loc 1 81 29 is_stmt 0 view .LVU58
 215 002c 05F1180C 		add	ip, r5, #24
 216 0030 04F13C0E 		add	lr, r4, #60
 217 0034 BEE80F00 		ldmia	lr!, {r0, r1, r2, r3}
 218 0038 ACE80F00 		stmia	ip!, {r0, r1, r2, r3}
 219 003c 9EE80300 		ldm	lr, {r0, r1}
 220 0040 8CE80300 		stm	ip, {r0, r1}
  82:Core/Src/Common/Src/dsp.c ****     state_topic->Pendulum   = self->pendulum_state;
 221              		.loc 1 82 5 is_stmt 1 view .LVU59
 222              		.loc 1 82 29 is_stmt 0 view .LVU60
 223 0044 05F1300E 		add	lr, r5, #48
 224 0048 04F1540C 		add	ip, r4, #84
 225 004c BCE80F00 		ldmia	ip!, {r0, r1, r2, r3}
 226 0050 AEE80F00 		stmia	lr!, {r0, r1, r2, r3}
 227 0054 9CE80300 		ldm	ip, {r0, r1}
 228 0058 8EE80300 		stm	lr, {r0, r1}
  83:Core/Src/Common/Src/dsp.c **** }
 229              		.loc 1 83 1 view .LVU61
 230 005c 38BD     		pop	{r3, r4, r5, pc}
 231              		.loc 1 83 1 view .LVU62
 232              		.cfi_endproc
 233              	.LFE160:
 235              		.section	.text.Differentiator_new,"ax",%progbits
 236              		.align	1
 237              		.syntax unified
 238              		.thumb
 239              		.thumb_func
 241              	Differentiator_new:
 242              	.LVL10:
 243              	.LFB156:
  28:Core/Src/Common/Src/dsp.c ****     self->apply = &Differentiator_apply;
 244              		.loc 1 28 130 is_stmt 1 view -0
 245              		.cfi_startproc
 246              		@ args = 0, pretend = 0, frame = 0
 247              		@ frame_needed = 0, uses_anonymous_args = 0
  28:Core/Src/Common/Src/dsp.c ****     self->apply = &Differentiator_apply;
 248              		.loc 1 28 130 is_stmt 0 view .LVU64
 249 0000 70B5     		push	{r4, r5, r6, lr}
 250              	.LCFI2:
 251              		.cfi_def_cfa_offset 16
 252              		.cfi_offset 4, -16
 253              		.cfi_offset 5, -12
 254              		.cfi_offset 6, -8
 255              		.cfi_offset 14, -4
 256 0002 0446     		mov	r4, r0
 257 0004 0D46     		mov	r5, r1
 258 0006 1646     		mov	r6, r2
  29:Core/Src/Common/Src/dsp.c **** 
 259              		.loc 1 29 5 is_stmt 1 view .LVU65
  29:Core/Src/Common/Src/dsp.c **** 
 260              		.loc 1 29 17 is_stmt 0 view .LVU66
 261 0008 074B     		ldr	r3, .L9
 262 000a 8362     		str	r3, [r0, #40]
  31:Core/Src/Common/Src/dsp.c **** 
 263              		.loc 1 31 5 is_stmt 1 view .LVU67
ARM GAS  C:\Users\CuongLe\AppData\Local\Temp\ccH0sClq.s 			page 7


  31:Core/Src/Common/Src/dsp.c **** 
 264              		.loc 1 31 14 is_stmt 0 view .LVU68
 265 000c 80ED000A 		vstr.32	s0, [r0]
  33:Core/Src/Common/Src/dsp.c **** 
 266              		.loc 1 33 5 is_stmt 1 view .LVU69
  33:Core/Src/Common/Src/dsp.c **** 
 267              		.loc 1 33 40 is_stmt 0 view .LVU70
 268 0010 C800     		lsls	r0, r1, #3
 269              	.LVL11:
  33:Core/Src/Common/Src/dsp.c **** 
 270              		.loc 1 33 40 view .LVU71
 271 0012 FFF7FEFF 		bl	pvPortMalloc
 272              	.LVL12:
  33:Core/Src/Common/Src/dsp.c **** 
 273              		.loc 1 33 40 view .LVU72
 274 0016 0346     		mov	r3, r0
  33:Core/Src/Common/Src/dsp.c **** 
 275              		.loc 1 33 24 discriminator 1 view .LVU73
 276 0018 6062     		str	r0, [r4, #36]
  35:Core/Src/Common/Src/dsp.c **** }
 277              		.loc 1 35 5 is_stmt 1 view .LVU74
 278 001a 3246     		mov	r2, r6
 279 001c 2946     		mov	r1, r5
 280 001e 04F11800 		add	r0, r4, #24
 281 0022 FFF7FEFF 		bl	arm_biquad_cascade_df2T_init_f32
 282              	.LVL13:
  36:Core/Src/Common/Src/dsp.c **** 
 283              		.loc 1 36 1 is_stmt 0 view .LVU75
 284 0026 70BD     		pop	{r4, r5, r6, pc}
 285              	.LVL14:
 286              	.L10:
  36:Core/Src/Common/Src/dsp.c **** 
 287              		.loc 1 36 1 view .LVU76
 288              		.align	2
 289              	.L9:
 290 0028 00000000 		.word	Differentiator_apply
 291              		.cfi_endproc
 292              	.LFE156:
 294              		.section	.text.Differentiator_apply,"ax",%progbits
 295              		.align	1
 296              		.syntax unified
 297              		.thumb
 298              		.thumb_func
 300              	Differentiator_apply:
 301              	.LVL15:
 302              	.LFB155:
   8:Core/Src/Common/Src/dsp.c ****     float32_t diff_x;
 303              		.loc 1 8 125 is_stmt 1 view -0
 304              		.cfi_startproc
 305              		@ args = 0, pretend = 0, frame = 8
 306              		@ frame_needed = 0, uses_anonymous_args = 0
   8:Core/Src/Common/Src/dsp.c ****     float32_t diff_x;
 307              		.loc 1 8 125 is_stmt 0 view .LVU78
 308 0000 30B5     		push	{r4, r5, lr}
 309              	.LCFI3:
 310              		.cfi_def_cfa_offset 12
 311              		.cfi_offset 4, -12
ARM GAS  C:\Users\CuongLe\AppData\Local\Temp\ccH0sClq.s 			page 8


 312              		.cfi_offset 5, -8
 313              		.cfi_offset 14, -4
 314 0002 83B0     		sub	sp, sp, #12
 315              	.LCFI4:
 316              		.cfi_def_cfa_offset 24
 317 0004 1546     		mov	r5, r2
 318 0006 1C46     		mov	r4, r3
   9:Core/Src/Common/Src/dsp.c ****     float32_t filtered_diff_x;
 319              		.loc 1 9 5 is_stmt 1 view .LVU79
  10:Core/Src/Common/Src/dsp.c ****     float32_t x = *input;
 320              		.loc 1 10 5 view .LVU80
  11:Core/Src/Common/Src/dsp.c **** 
 321              		.loc 1 11 5 view .LVU81
  11:Core/Src/Common/Src/dsp.c **** 
 322              		.loc 1 11 15 is_stmt 0 view .LVU82
 323 0008 D1ED006A 		vldr.32	s13, [r1]
 324              	.LVL16:
  14:Core/Src/Common/Src/dsp.c **** 
 325              		.loc 1 14 5 is_stmt 1 view .LVU83
  14:Core/Src/Common/Src/dsp.c **** 
 326              		.loc 1 14 19 is_stmt 0 view .LVU84
 327 000c F0EE087A 		vmov.f32	s15, #3.0e+0
 328 0010 66EEA77A 		vmul.f32	s15, s13, s15
  14:Core/Src/Common/Src/dsp.c **** 
 329              		.loc 1 14 43 view .LVU85
 330 0014 90ED046A 		vldr.32	s12, [r0, #16]
  14:Core/Src/Common/Src/dsp.c **** 
 331              		.loc 1 14 28 view .LVU86
 332 0018 B1EE007A 		vmov.f32	s14, #4.0e+0
 333 001c 26EE077A 		vmul.f32	s14, s12, s14
  14:Core/Src/Common/Src/dsp.c **** 
 334              		.loc 1 14 22 view .LVU87
 335 0020 77EEC77A 		vsub.f32	s15, s15, s14
  14:Core/Src/Common/Src/dsp.c **** 
 336              		.loc 1 14 68 view .LVU88
 337 0024 90ED057A 		vldr.32	s14, [r0, #20]
  14:Core/Src/Common/Src/dsp.c **** 
 338              		.loc 1 14 47 view .LVU89
 339 0028 77EE877A 		vadd.f32	s15, s15, s14
  14:Core/Src/Common/Src/dsp.c **** 
 340              		.loc 1 14 87 view .LVU90
 341 002c 90ED007A 		vldr.32	s14, [r0]
  14:Core/Src/Common/Src/dsp.c **** 
 342              		.loc 1 14 81 view .LVU91
 343 0030 37EE077A 		vadd.f32	s14, s14, s14
  14:Core/Src/Common/Src/dsp.c **** 
 344              		.loc 1 14 73 view .LVU92
 345 0034 C7EE875A 		vdiv.f32	s11, s15, s14
  14:Core/Src/Common/Src/dsp.c **** 
 346              		.loc 1 14 12 view .LVU93
 347 0038 CDED015A 		vstr.32	s11, [sp, #4]
  16:Core/Src/Common/Src/dsp.c ****     
 348              		.loc 1 16 5 is_stmt 1 view .LVU94
  16:Core/Src/Common/Src/dsp.c ****     
 349              		.loc 1 16 23 is_stmt 0 view .LVU95
 350 003c 80ED056A 		vstr.32	s12, [r0, #20]
  16:Core/Src/Common/Src/dsp.c ****     
ARM GAS  C:\Users\CuongLe\AppData\Local\Temp\ccH0sClq.s 			page 9


 351              		.loc 1 16 44 is_stmt 1 view .LVU96
  16:Core/Src/Common/Src/dsp.c ****     
 352              		.loc 1 16 62 is_stmt 0 view .LVU97
 353 0040 C0ED046A 		vstr.32	s13, [r0, #16]
  19:Core/Src/Common/Src/dsp.c ****     arm_biquad_cascade_df2T_f32(&self->filter, &diff_x, &filtered_diff_x, 1);
 354              		.loc 1 19 5 is_stmt 1 view .LVU98
  19:Core/Src/Common/Src/dsp.c ****     arm_biquad_cascade_df2T_f32(&self->filter, &diff_x, &filtered_diff_x, 1);
 355              		.loc 1 19 28 is_stmt 0 view .LVU99
 356 0044 0123     		movs	r3, #1
 357              	.LVL17:
  19:Core/Src/Common/Src/dsp.c ****     arm_biquad_cascade_df2T_f32(&self->filter, &diff_x, &filtered_diff_x, 1);
 358              		.loc 1 19 28 view .LVU100
 359 0046 00F8183F 		strb	r3, [r0, #24]!
 360              	.LVL18:
  20:Core/Src/Common/Src/dsp.c **** 
 361              		.loc 1 20 5 is_stmt 1 view .LVU101
 362 004a 6A46     		mov	r2, sp
 363              	.LVL19:
  20:Core/Src/Common/Src/dsp.c **** 
 364              		.loc 1 20 5 is_stmt 0 view .LVU102
 365 004c 01A9     		add	r1, sp, #4
 366              	.LVL20:
  20:Core/Src/Common/Src/dsp.c **** 
 367              		.loc 1 20 5 view .LVU103
 368 004e FFF7FEFF 		bl	arm_biquad_cascade_df2T_f32
 369              	.LVL21:
  23:Core/Src/Common/Src/dsp.c ****     *rawOutput = diff_x;
 370              		.loc 1 23 5 is_stmt 1 view .LVU104
  23:Core/Src/Common/Src/dsp.c ****     *rawOutput = diff_x;
 371              		.loc 1 23 13 is_stmt 0 view .LVU105
 372 0052 009B     		ldr	r3, [sp]	@ float
 373 0054 2B60     		str	r3, [r5]	@ float
  24:Core/Src/Common/Src/dsp.c **** }
 374              		.loc 1 24 5 is_stmt 1 view .LVU106
  24:Core/Src/Common/Src/dsp.c **** }
 375              		.loc 1 24 16 is_stmt 0 view .LVU107
 376 0056 019B     		ldr	r3, [sp, #4]	@ float
 377 0058 2360     		str	r3, [r4]	@ float
  25:Core/Src/Common/Src/dsp.c **** 
 378              		.loc 1 25 1 view .LVU108
 379 005a 03B0     		add	sp, sp, #12
 380              	.LCFI5:
 381              		.cfi_def_cfa_offset 12
 382              		@ sp needed
 383 005c 30BD     		pop	{r4, r5, pc}
  25:Core/Src/Common/Src/dsp.c **** 
 384              		.loc 1 25 1 view .LVU109
 385              		.cfi_endproc
 386              	.LFE155:
 388              		.section	.text.dsp_new,"ax",%progbits
 389              		.align	1
 390              		.global	dsp_new
 391              		.syntax unified
 392              		.thumb
 393              		.thumb_func
 395              	dsp_new:
 396              	.LVL22:
ARM GAS  C:\Users\CuongLe\AppData\Local\Temp\ccH0sClq.s 			page 10


 397              	.LFB161:
  84:Core/Src/Common/Src/dsp.c **** 
  85:Core/Src/Common/Src/dsp.c **** void dsp_new (DSP * const self) {
 398              		.loc 1 85 33 is_stmt 1 view -0
 399              		.cfi_startproc
 400              		@ args = 0, pretend = 0, frame = 0
 401              		@ frame_needed = 0, uses_anonymous_args = 0
 402              		.loc 1 85 33 is_stmt 0 view .LVU111
 403 0000 10B5     		push	{r4, lr}
 404              	.LCFI6:
 405              		.cfi_def_cfa_offset 8
 406              		.cfi_offset 4, -8
 407              		.cfi_offset 14, -4
 408 0002 2DED028B 		vpush.64	{d8}
 409              	.LCFI7:
 410              		.cfi_def_cfa_offset 16
 411              		.cfi_offset 80, -16
 412              		.cfi_offset 81, -12
 413 0006 0446     		mov	r4, r0
  86:Core/Src/Common/Src/dsp.c ****     self->gear_ratio = (1.0f / 14.0f) * ((14.0f * 1.5f * 0.001f) / 2.0f);
 414              		.loc 1 86 5 is_stmt 1 view .LVU112
 415              		.loc 1 86 22 is_stmt 0 view .LVU113
 416 0008 1E4B     		ldr	r3, .L15
 417 000a 0360     		str	r3, [r0]	@ float
  87:Core/Src/Common/Src/dsp.c **** 
  88:Core/Src/Common/Src/dsp.c ****     self->motor_resolution = (2.0f * PI) / (4.0f * 500.0f);
 418              		.loc 1 88 5 is_stmt 1 view .LVU114
 419              		.loc 1 88 28 is_stmt 0 view .LVU115
 420 000c 1E4B     		ldr	r3, .L15+4
 421 000e 4360     		str	r3, [r0, #4]	@ float
  89:Core/Src/Common/Src/dsp.c ****     self->pendulum_resolution = (2.0f * PI) / (4.0f * 1000.0f);
 422              		.loc 1 89 5 is_stmt 1 view .LVU116
 423              		.loc 1 89 31 is_stmt 0 view .LVU117
 424 0010 1E4B     		ldr	r3, .L15+8
 425 0012 8360     		str	r3, [r0, #8]	@ float
  90:Core/Src/Common/Src/dsp.c **** 
  91:Core/Src/Common/Src/dsp.c ****     /* Khởi tạo các giá trị ban đầu */
  92:Core/Src/Common/Src/dsp.c ****     self->motor_state       = (StateData){0.0f};
 426              		.loc 1 92 5 is_stmt 1 view .LVU118
 427              		.loc 1 92 29 is_stmt 0 view .LVU119
 428 0014 0023     		movs	r3, #0
 429 0016 4362     		str	r3, [r0, #36]
 430 0018 8362     		str	r3, [r0, #40]
 431 001a C362     		str	r3, [r0, #44]
 432 001c 0363     		str	r3, [r0, #48]
 433 001e 4363     		str	r3, [r0, #52]
 434 0020 8363     		str	r3, [r0, #56]
  93:Core/Src/Common/Src/dsp.c ****     self->cart_state        = (StateData){0.0f};
 435              		.loc 1 93 5 is_stmt 1 view .LVU120
 436              		.loc 1 93 29 is_stmt 0 view .LVU121
 437 0022 C363     		str	r3, [r0, #60]
 438 0024 0364     		str	r3, [r0, #64]
 439 0026 4364     		str	r3, [r0, #68]
 440 0028 8364     		str	r3, [r0, #72]
 441 002a C364     		str	r3, [r0, #76]
 442 002c 0365     		str	r3, [r0, #80]
  94:Core/Src/Common/Src/dsp.c ****     self->pendulum_state    = (StateData){0.0f};
ARM GAS  C:\Users\CuongLe\AppData\Local\Temp\ccH0sClq.s 			page 11


 443              		.loc 1 94 5 is_stmt 1 view .LVU122
 444              		.loc 1 94 29 is_stmt 0 view .LVU123
 445 002e 4365     		str	r3, [r0, #84]
 446 0030 8365     		str	r3, [r0, #88]
 447 0032 C365     		str	r3, [r0, #92]
 448 0034 0366     		str	r3, [r0, #96]
 449 0036 4366     		str	r3, [r0, #100]
 450 0038 8366     		str	r3, [r0, #104]
  95:Core/Src/Common/Src/dsp.c **** 
  96:Core/Src/Common/Src/dsp.c ****     /*Initialize Differentiators*/
  97:Core/Src/Common/Src/dsp.c ****     self->motor_differentiator = ( Differentiator * ) pvPortMalloc( sizeof(Differentiator) );
 451              		.loc 1 97 5 is_stmt 1 view .LVU124
 452              		.loc 1 97 55 is_stmt 0 view .LVU125
 453 003a 2C20     		movs	r0, #44
 454              	.LVL23:
 455              		.loc 1 97 55 view .LVU126
 456 003c FFF7FEFF 		bl	pvPortMalloc
 457              	.LVL24:
 458              		.loc 1 97 32 discriminator 1 view .LVU127
 459 0040 E066     		str	r0, [r4, #108]
  98:Core/Src/Common/Src/dsp.c ****     self->pendulum_differentiator = ( Differentiator * ) pvPortMalloc( sizeof(Differentiator) );
 460              		.loc 1 98 5 is_stmt 1 view .LVU128
 461              		.loc 1 98 58 is_stmt 0 view .LVU129
 462 0042 2C20     		movs	r0, #44
 463 0044 FFF7FEFF 		bl	pvPortMalloc
 464              	.LVL25:
 465              		.loc 1 98 35 discriminator 1 view .LVU130
 466 0048 2067     		str	r0, [r4, #112]
  99:Core/Src/Common/Src/dsp.c ****     Differentiator_new(self->motor_differentiator, 1e-3f, MOTOR_FILTER_STAGES_NUM, &MotorCoefficien
 467              		.loc 1 99 5 is_stmt 1 view .LVU131
 468 004a 9FED118A 		vldr.32	s16, .L15+12
 469 004e 114A     		ldr	r2, .L15+16
 470 0050 0121     		movs	r1, #1
 471 0052 B0EE480A 		vmov.f32	s0, s16
 472 0056 E06E     		ldr	r0, [r4, #108]
 473 0058 FFF7FEFF 		bl	Differentiator_new
 474              	.LVL26:
 100:Core/Src/Common/Src/dsp.c ****     Differentiator_new(self->pendulum_differentiator, 1e-3f, PENDULUM_FILTER_STAGES_NUM, &PendulumC
 475              		.loc 1 100 5 view .LVU132
 476 005c 0E4A     		ldr	r2, .L15+20
 477 005e 0121     		movs	r1, #1
 478 0060 B0EE480A 		vmov.f32	s0, s16
 479 0064 206F     		ldr	r0, [r4, #112]
 480 0066 FFF7FEFF 		bl	Differentiator_new
 481              	.LVL27:
 101:Core/Src/Common/Src/dsp.c **** 
 102:Core/Src/Common/Src/dsp.c ****     /*----------*/
 103:Core/Src/Common/Src/dsp.c ****     self->motor_angle = 0.0f;
 482              		.loc 1 103 5 view .LVU133
 483              		.loc 1 103 23 is_stmt 0 view .LVU134
 484 006a 0023     		movs	r3, #0
 485 006c E360     		str	r3, [r4, #12]	@ float
 104:Core/Src/Common/Src/dsp.c ****     self->pendulum_angle = 0.0f; 
 486              		.loc 1 104 5 is_stmt 1 view .LVU135
 487              		.loc 1 104 26 is_stmt 0 view .LVU136
 488 006e 2361     		str	r3, [r4, #16]	@ float
 105:Core/Src/Common/Src/dsp.c **** 
ARM GAS  C:\Users\CuongLe\AppData\Local\Temp\ccH0sClq.s 			page 12


 106:Core/Src/Common/Src/dsp.c ****     self->raw_motor_velocity = 0.0f; self->motor_velocity = 0.0f;
 489              		.loc 1 106 5 is_stmt 1 view .LVU137
 490              		.loc 1 106 30 is_stmt 0 view .LVU138
 491 0070 6361     		str	r3, [r4, #20]	@ float
 492              		.loc 1 106 38 is_stmt 1 view .LVU139
 493              		.loc 1 106 59 is_stmt 0 view .LVU140
 494 0072 E361     		str	r3, [r4, #28]	@ float
 107:Core/Src/Common/Src/dsp.c ****     self->raw_pendulum_velocity = 0.0f; self->pendulum_velocity = 0.0f;
 495              		.loc 1 107 5 is_stmt 1 view .LVU141
 496              		.loc 1 107 33 is_stmt 0 view .LVU142
 497 0074 A361     		str	r3, [r4, #24]	@ float
 498              		.loc 1 107 41 is_stmt 1 view .LVU143
 499              		.loc 1 107 65 is_stmt 0 view .LVU144
 500 0076 2362     		str	r3, [r4, #32]	@ float
 108:Core/Src/Common/Src/dsp.c **** 
 109:Core/Src/Common/Src/dsp.c ****     /* Assign function pointer */
 110:Core/Src/Common/Src/dsp.c ****     // self->ConvertAngle  = &ConvertAngle;
 111:Core/Src/Common/Src/dsp.c ****     // self->filter        = &filter;
 112:Core/Src/Common/Src/dsp.c ****     // self->estimate      = &estimate;
 113:Core/Src/Common/Src/dsp.c ****     self->procesNewData = &procesNewData;
 501              		.loc 1 113 5 is_stmt 1 view .LVU145
 502              		.loc 1 113 25 is_stmt 0 view .LVU146
 503 0078 084B     		ldr	r3, .L15+24
 504 007a 6367     		str	r3, [r4, #116]
 114:Core/Src/Common/Src/dsp.c **** }...
 505              		.loc 1 114 1 view .LVU147
 506 007c BDEC028B 		vldm	sp!, {d8}
 507              	.LCFI8:
 508              		.cfi_restore 80
 509              		.cfi_restore 81
 510              		.cfi_def_cfa_offset 8
 511 0080 10BD     		pop	{r4, pc}
 512              	.LVL28:
 513              	.L16:
 514              		.loc 1 114 1 view .LVU148
 515 0082 00BF     		.align	2
 516              	.L15:
 517 0084 A79B443A 		.word	977574823
 518 0088 2EE34D3B 		.word	994960174
 519 008c 2EE3CD3A 		.word	986571566
 520 0090 6F12833A 		.word	981668463
 521 0094 00000000 		.word	MotorCoefficients
 522 0098 00000000 		.word	PendulumCoefficients
 523 009c 00000000 		.word	procesNewData
 524              		.cfi_endproc
 525              	.LFE161:
 527              		.text
 528              	.Letext0:
 529              		.file 2 "D:/DATN/InvertedPendulum/Tool/ArmGnuToolchain/lib/gcc/arm-none-eabi/14.2.1/include/stddef
 530              		.file 3 "D:/DATN/InvertedPendulum/Tool/ArmGnuToolchain/arm-none-eabi/include/machine/_default_type
 531              		.file 4 "D:/DATN/InvertedPendulum/Tool/ArmGnuToolchain/arm-none-eabi/include/sys/_stdint.h"
 532              		.file 5 "Middlewares/ST/ARM/DSP/Inc/arm_math.h"
 533              		.file 6 "Core/Src/Application/Inc/Topic.h"
 534              		.file 7 "Core/Src/Common/Inc/dsp.h"
 535              		.file 8 "Middlewares/Third_Party/ARM/FreeRTOS/include/portable.h"
ARM GAS  C:\Users\CuongLe\AppData\Local\Temp\ccH0sClq.s 			page 13

