ARM GAS  C:\Users\CuongLe\AppData\Local\Temp\ccwK8UsV.s 			page 1


   1              		.cpu cortex-m4
   2              		.arch armv7e-m
   3              		.fpu fpv4-sp-d16
   4              		.eabi_attribute 27, 1
   5              		.eabi_attribute 28, 1
   6              		.eabi_attribute 20, 1
   7              		.eabi_attribute 21, 1
   8              		.eabi_attribute 23, 3
   9              		.eabi_attribute 24, 1
  10              		.eabi_attribute 25, 1
  11              		.eabi_attribute 26, 1
  12              		.eabi_attribute 30, 1
  13              		.eabi_attribute 34, 1
  14              		.eabi_attribute 18, 4
  15              		.file	"timer.c"
  16              		.text
  17              	.Ltext0:
  18              		.cfi_sections	.debug_frame
  19              		.file 1 "Core/Src/Drivers/Src/timer.c"
  20              		.section	.text.HAL_TIM_IC_CaptureCallback,"ax",%progbits
  21              		.align	1
  22              		.global	HAL_TIM_IC_CaptureCallback
  23              		.syntax unified
  24              		.thumb
  25              		.thumb_func
  27              	HAL_TIM_IC_CaptureCallback:
  28              	.LVL0:
  29              	.LFB288:
   1:Core/Src/Drivers/Src/timer.c **** #include "timer.h"
   2:Core/Src/Drivers/Src/timer.c **** 
   3:Core/Src/Drivers/Src/timer.c **** extern struct Active * AO_Estimator;
   4:Core/Src/Drivers/Src/timer.c **** 
   5:Core/Src/Drivers/Src/timer.c **** /**
   6:Core/Src/Drivers/Src/timer.c ****   * @brief  Input Capture callback in non-blocking mode
   7:Core/Src/Drivers/Src/timer.c ****   * @param  htim TIM IC handle
   8:Core/Src/Drivers/Src/timer.c ****   * @retval None
   9:Core/Src/Drivers/Src/timer.c ****   */
  10:Core/Src/Drivers/Src/timer.c ****  void HAL_TIM_IC_CaptureCallback(TIM_HandleTypeDef *htim) {
  30              		.loc 1 10 59 view -0
  31              		.cfi_startproc
  32              		@ args = 0, pretend = 0, frame = 0
  33              		@ frame_needed = 0, uses_anonymous_args = 0
  34              		@ link register save eliminated.
  11:Core/Src/Drivers/Src/timer.c ****     if(htim->Instance == TIM2) {
  35              		.loc 1 11 5 view .LVU1
  12:Core/Src/Drivers/Src/timer.c ****   
  13:Core/Src/Drivers/Src/timer.c ****     }
  14:Core/Src/Drivers/Src/timer.c ****   
  15:Core/Src/Drivers/Src/timer.c ****     else if(htim->Instance == TIM3) {
  36              		.loc 1 15 10 view .LVU2
  16:Core/Src/Drivers/Src/timer.c ****       
  17:Core/Src/Drivers/Src/timer.c ****     }
  37              		.loc 1 17 5 view .LVU3
  18:Core/Src/Drivers/Src/timer.c ****   }
  38              		.loc 1 18 3 is_stmt 0 view .LVU4
  39 0000 7047     		bx	lr
  40              		.cfi_endproc
ARM GAS  C:\Users\CuongLe\AppData\Local\Temp\ccwK8UsV.s 			page 2


  41              	.LFE288:
  43              		.section	.text.HAL_TIM_PeriodElapsedCallback,"ax",%progbits
  44              		.align	1
  45              		.global	HAL_TIM_PeriodElapsedCallback
  46              		.syntax unified
  47              		.thumb
  48              		.thumb_func
  50              	HAL_TIM_PeriodElapsedCallback:
  51              	.LVL1:
  52              	.LFB289:
  19:Core/Src/Drivers/Src/timer.c ****   
  20:Core/Src/Drivers/Src/timer.c **** /**
  21:Core/Src/Drivers/Src/timer.c **** * @brief  Period elapsed callback in non-blocking mode
  22:Core/Src/Drivers/Src/timer.c **** * @param  htim TIM handle
  23:Core/Src/Drivers/Src/timer.c **** * @retval None
  24:Core/Src/Drivers/Src/timer.c **** */
  25:Core/Src/Drivers/Src/timer.c **** void HAL_TIM_PeriodElapsedCallback(TIM_HandleTypeDef *htim) {
  53              		.loc 1 25 61 is_stmt 1 view -0
  54              		.cfi_startproc
  55              		@ args = 0, pretend = 0, frame = 8
  56              		@ frame_needed = 0, uses_anonymous_args = 0
  57              		.loc 1 25 61 is_stmt 0 view .LVU6
  58 0000 00B5     		push	{lr}
  59              	.LCFI0:
  60              		.cfi_def_cfa_offset 4
  61              		.cfi_offset 14, -4
  62 0002 83B0     		sub	sp, sp, #12
  63              	.LCFI1:
  64              		.cfi_def_cfa_offset 16
  26:Core/Src/Drivers/Src/timer.c **** 
  27:Core/Src/Drivers/Src/timer.c ****   BaseType_t xHigherPriorityTaskWoken = pdFALSE;
  65              		.loc 1 27 3 is_stmt 1 view .LVU7
  66              		.loc 1 27 14 is_stmt 0 view .LVU8
  67 0004 0023     		movs	r3, #0
  68 0006 0193     		str	r3, [sp, #4]
  28:Core/Src/Drivers/Src/timer.c **** 
  29:Core/Src/Drivers/Src/timer.c ****   // if(htim->Instance == TIM6) {
  30:Core/Src/Drivers/Src/timer.c **** 
  31:Core/Src/Drivers/Src/timer.c ****   // }
  32:Core/Src/Drivers/Src/timer.c **** 
  33:Core/Src/Drivers/Src/timer.c ****   if(htim->Instance == TIM7) {
  69              		.loc 1 33 3 is_stmt 1 view .LVU9
  70              		.loc 1 33 10 is_stmt 0 view .LVU10
  71 0008 0268     		ldr	r2, [r0]
  72              		.loc 1 33 5 view .LVU11
  73 000a 0D4B     		ldr	r3, .L7
  74 000c 9A42     		cmp	r2, r3
  75 000e 0ED0     		beq	.L6
  76              	.LVL2:
  77              	.L3:
  34:Core/Src/Drivers/Src/timer.c ****     static const Event time_evt = {.signal = TIMEOUT_1kHz_SIG};
  35:Core/Src/Drivers/Src/timer.c ****     AO_Estimator->postFromISR(AO_Estimator, &time_evt, &xHigherPriorityTaskWoken);
  36:Core/Src/Drivers/Src/timer.c ****   }
  37:Core/Src/Drivers/Src/timer.c **** 
  38:Core/Src/Drivers/Src/timer.c ****   portEND_SWITCHING_ISR(xHigherPriorityTaskWoken);
  78              		.loc 1 38 3 is_stmt 1 view .LVU12
  79              		.loc 1 38 3 view .LVU13
ARM GAS  C:\Users\CuongLe\AppData\Local\Temp\ccwK8UsV.s 			page 3


  80 0010 019B     		ldr	r3, [sp, #4]
  81 0012 4BB1     		cbz	r3, .L2
  82              		.loc 1 38 3 discriminator 1 view .LVU14
  83 0014 4FF0E023 		mov	r3, #-536813568
  84 0018 4FF08052 		mov	r2, #268435456
  85 001c C3F8042D 		str	r2, [r3, #3332]
  86              		.loc 1 38 3 view .LVU15
  87              		.loc 1 38 3 is_stmt 0 discriminator 1 view .LVU16
  88              		.syntax unified
  89              	@ 38 "Core/Src/Drivers/Src/timer.c" 1
  90 0020 BFF34F8F 		dsb
  91              	@ 0 "" 2
  92              		.loc 1 38 3 is_stmt 1 view .LVU17
  93              		.loc 1 38 3 is_stmt 0 discriminator 1 view .LVU18
  94              	@ 38 "Core/Src/Drivers/Src/timer.c" 1
  95 0024 BFF36F8F 		isb
  96              	@ 0 "" 2
  97              		.loc 1 38 3 is_stmt 1 discriminator 3 view .LVU19
  98              		.loc 1 38 3 discriminator 3 view .LVU20
  99              		.thumb
 100              		.syntax unified
 101              	.L2:
  39:Core/Src/Drivers/Src/timer.c **** }...
 102              		.loc 1 39 1 is_stmt 0 view .LVU21
 103 0028 03B0     		add	sp, sp, #12
 104              	.LCFI2:
 105              		.cfi_remember_state
 106              		.cfi_def_cfa_offset 4
 107              		@ sp needed
 108 002a 5DF804FB 		ldr	pc, [sp], #4
 109              	.LVL3:
 110              	.L6:
 111              	.LCFI3:
 112              		.cfi_restore_state
 113              	.LBB2:
  34:Core/Src/Drivers/Src/timer.c ****     static const Event time_evt = {.signal = TIMEOUT_1kHz_SIG};
 114              		.loc 1 34 5 is_stmt 1 view .LVU22
  35:Core/Src/Drivers/Src/timer.c ****     AO_Estimator->postFromISR(AO_Estimator, &time_evt, &xHigherPriorityTaskWoken);
 115              		.loc 1 35 5 view .LVU23
  35:Core/Src/Drivers/Src/timer.c ****     AO_Estimator->postFromISR(AO_Estimator, &time_evt, &xHigherPriorityTaskWoken);
 116              		.loc 1 35 17 is_stmt 0 view .LVU24
 117 002e 054B     		ldr	r3, .L7+4
 118 0030 1868     		ldr	r0, [r3]
 119              	.LVL4:
  35:Core/Src/Drivers/Src/timer.c ****     AO_Estimator->postFromISR(AO_Estimator, &time_evt, &xHigherPriorityTaskWoken);
 120              		.loc 1 35 17 view .LVU25
 121 0032 D0F8C830 		ldr	r3, [r0, #200]
  35:Core/Src/Drivers/Src/timer.c ****     AO_Estimator->postFromISR(AO_Estimator, &time_evt, &xHigherPriorityTaskWoken);
 122              		.loc 1 35 5 view .LVU26
 123 0036 01AA     		add	r2, sp, #4
 124 0038 0349     		ldr	r1, .L7+8
 125 003a 9847     		blx	r3
 126              	.LVL5:
 127 003c E8E7     		b	.L3
 128              	.L8:
 129 003e 00BF     		.align	2
 130              	.L7:
ARM GAS  C:\Users\CuongLe\AppData\Local\Temp\ccwK8UsV.s 			page 4


 131 0040 00140040 		.word	1073746944
 132 0044 00000000 		.word	AO_Estimator
 133 0048 00000000 		.word	time_evt.0
 134              	.LBE2:
 135              		.cfi_endproc
 136              	.LFE289:
 138              		.section	.rodata.time_evt.0,"a"
 139              		.align	2
 142              	time_evt.0:
 143 0000 0300     		.short	3
 144              		.text
 145              	.Letext0:
 146              		.file 2 "D:/InvertedPendulum/Tool/ArmGnuToolchain/arm-none-eabi/include/machine/_default_types.h"
 147              		.file 3 "D:/InvertedPendulum/Tool/ArmGnuToolchain/arm-none-eabi/include/sys/_stdint.h"
 148              		.file 4 "Drivers/CMSIS/Device/ST/STM32F4xx/Include/stm32f407xx.h"
 149              		.file 5 "Drivers/STM32F4xx_HAL_Driver/Inc/stm32f4xx_hal_def.h"
 150              		.file 6 "Drivers/STM32F4xx_HAL_Driver/Inc/stm32f4xx_hal_dma.h"
 151              		.file 7 "Drivers/STM32F4xx_HAL_Driver/Inc/stm32f4xx_hal_tim.h"
 152              		.file 8 "Middlewares/Third_Party/ARM/FreeRTOS/portable/GCC/ARM_CM4F/portmacro.h"
 153              		.file 9 "Middlewares/Third_Party/ARM/FreeRTOS/include/FreeRTOS.h"
 154              		.file 10 "Middlewares/Third_Party/ARM/FreeRTOS/include/task.h"
 155              		.file 11 "Middlewares/Third_Party/ARM/FreeRTOS/include/queue.h"
 156              		.file 12 "Core/Src/Application/Inc/ActiveObject.h"
 157              		.file 13 "Core/Src/Application/Inc/Estimator.h"
ARM GAS  C:\Users\CuongLe\AppData\Local\Temp\ccwK8UsV.s 			page 5


DEFINED SYMBOLS
                            *ABS*:00000000 timer.c
C:\Users\CuongLe\AppData\Local\Temp\ccwK8UsV.s:21     .text.HAL_TIM_IC_CaptureCallback:00000000 $t
C:\Users\CuongLe\AppData\Local\Temp\ccwK8UsV.s:27     .text.HAL_TIM_IC_CaptureCallback:00000000 HAL_TIM_IC_CaptureCallback
C:\Users\CuongLe\AppData\Local\Temp\ccwK8UsV.s:44     .text.HAL_TIM_PeriodElapsedCallback:00000000 $t
C:\Users\CuongLe\AppData\Local\Temp\ccwK8UsV.s:50     .text.HAL_TIM_PeriodElapsedCallback:00000000 HAL_TIM_PeriodElapsedCallback
C:\Users\CuongLe\AppData\Local\Temp\ccwK8UsV.s:131    .text.HAL_TIM_PeriodElapsedCallback:00000040 $d
C:\Users\CuongLe\AppData\Local\Temp\ccwK8UsV.s:142    .rodata.time_evt.0:00000000 time_evt.0
C:\Users\CuongLe\AppData\Local\Temp\ccwK8UsV.s:139    .rodata.time_evt.0:00000000 $d

UNDEFINED SYMBOLS
AO_Estimator
