ARM GAS  C:\Users\CuongLe\AppData\Local\Temp\cckQqBXy.s 			page 1


   1              		.cpu cortex-m4
   2              		.arch armv7e-m
   3              		.fpu fpv4-sp-d16
   4              		.eabi_attribute 27, 1
   5              		.eabi_attribute 28, 1
   6              		.eabi_attribute 20, 1
   7              		.eabi_attribute 21, 1
   8              		.eabi_attribute 23, 3
   9              		.eabi_attribute 24, 1
  10              		.eabi_attribute 25, 1
  11              		.eabi_attribute 26, 1
  12              		.eabi_attribute 30, 1
  13              		.eabi_attribute 34, 1
  14              		.eabi_attribute 18, 4
  15              		.file	"usart.c"
  16              		.text
  17              	.Ltext0:
  18              		.cfi_sections	.debug_frame
  19              		.file 1 "Core/Src/Drivers/Src/usart.c"
  20              		.section	.text.HAL_UART_TxCpltCallback,"ax",%progbits
  21              		.align	1
  22              		.global	HAL_UART_TxCpltCallback
  23              		.syntax unified
  24              		.thumb
  25              		.thumb_func
  27              	HAL_UART_TxCpltCallback:
  28              	.LVL0:
  29              	.LFB288:
   1:Core/Src/Drivers/Src/usart.c **** #include "usart.h"
   2:Core/Src/Drivers/Src/usart.c **** 
   3:Core/Src/Drivers/Src/usart.c **** extern struct Active * AO_Computer;
   4:Core/Src/Drivers/Src/usart.c **** extern struct Active * AO_Motor;
   5:Core/Src/Drivers/Src/usart.c **** 
   6:Core/Src/Drivers/Src/usart.c **** /**
   7:Core/Src/Drivers/Src/usart.c ****   * @brief  Tx Transfer completed callbacks.
   8:Core/Src/Drivers/Src/usart.c ****   * @param  huart  Pointer to a UART_HandleTypeDef structure that contains
   9:Core/Src/Drivers/Src/usart.c ****   *                the configuration information for the specified UART module.
  10:Core/Src/Drivers/Src/usart.c ****   * @retval None
  11:Core/Src/Drivers/Src/usart.c ****   */
  12:Core/Src/Drivers/Src/usart.c **** void HAL_UART_TxCpltCallback(UART_HandleTypeDef *huart) {
  30              		.loc 1 12 57 view -0
  31              		.cfi_startproc
  32              		@ args = 0, pretend = 0, frame = 8
  33              		@ frame_needed = 0, uses_anonymous_args = 0
  34              		.loc 1 12 57 is_stmt 0 view .LVU1
  35 0000 00B5     		push	{lr}
  36              	.LCFI0:
  37              		.cfi_def_cfa_offset 4
  38              		.cfi_offset 14, -4
  39 0002 83B0     		sub	sp, sp, #12
  40              	.LCFI1:
  41              		.cfi_def_cfa_offset 16
  13:Core/Src/Drivers/Src/usart.c ****   BaseType_t xHigherPriorityTaskWoken = pdFALSE;
  42              		.loc 1 13 3 is_stmt 1 view .LVU2
  43              		.loc 1 13 14 is_stmt 0 view .LVU3
  44 0004 0023     		movs	r3, #0
  45 0006 0193     		str	r3, [sp, #4]
ARM GAS  C:\Users\CuongLe\AppData\Local\Temp\cckQqBXy.s 			page 2


  14:Core/Src/Drivers/Src/usart.c ****   if(huart->Instance == USART2) {
  46              		.loc 1 14 3 is_stmt 1 view .LVU4
  47              		.loc 1 14 11 is_stmt 0 view .LVU5
  48 0008 0368     		ldr	r3, [r0]
  49              		.loc 1 14 5 view .LVU6
  50 000a 124A     		ldr	r2, .L8
  51 000c 9342     		cmp	r3, r2
  52 000e 11D0     		beq	.L6
  15:Core/Src/Drivers/Src/usart.c ****     static const Event motor_sended_event = {.signal = COMMAND_SENDED_SIG};
  16:Core/Src/Drivers/Src/usart.c ****     AO_Motor->postFromISR(AO_Motor, &motor_sended_event, &xHigherPriorityTaskWoken);
  17:Core/Src/Drivers/Src/usart.c ****   } else if(huart->Instance == USART3) {
  53              		.loc 1 17 10 is_stmt 1 view .LVU7
  54              		.loc 1 17 12 is_stmt 0 view .LVU8
  55 0010 114A     		ldr	r2, .L8+4
  56 0012 9342     		cmp	r3, r2
  57 0014 16D0     		beq	.L7
  58              	.LVL1:
  59              	.L3:
  18:Core/Src/Drivers/Src/usart.c ****     static const Event sensor_event = {.signal = SENSOR_SENDED_SIG};
  19:Core/Src/Drivers/Src/usart.c ****     AO_Computer->postFromISR(AO_Computer, &sensor_event, &xHigherPriorityTaskWoken);
  20:Core/Src/Drivers/Src/usart.c ****   }
  21:Core/Src/Drivers/Src/usart.c ****   portEND_SWITCHING_ISR(xHigherPriorityTaskWoken);
  60              		.loc 1 21 3 is_stmt 1 view .LVU9
  61              		.loc 1 21 3 view .LVU10
  62 0016 019B     		ldr	r3, [sp, #4]
  63 0018 4BB1     		cbz	r3, .L1
  64              		.loc 1 21 3 discriminator 1 view .LVU11
  65 001a 4FF0E023 		mov	r3, #-536813568
  66 001e 4FF08052 		mov	r2, #268435456
  67 0022 C3F8042D 		str	r2, [r3, #3332]
  68              		.loc 1 21 3 view .LVU12
  69              		.loc 1 21 3 is_stmt 0 discriminator 1 view .LVU13
  70              		.syntax unified
  71              	@ 21 "Core/Src/Drivers/Src/usart.c" 1
  72 0026 BFF34F8F 		dsb
  73              	@ 0 "" 2
  74              		.loc 1 21 3 is_stmt 1 view .LVU14
  75              		.loc 1 21 3 is_stmt 0 discriminator 1 view .LVU15
  76              	@ 21 "Core/Src/Drivers/Src/usart.c" 1
  77 002a BFF36F8F 		isb
  78              	@ 0 "" 2
  79              		.loc 1 21 3 is_stmt 1 discriminator 3 view .LVU16
  80              		.loc 1 21 3 discriminator 3 view .LVU17
  81              		.thumb
  82              		.syntax unified
  83              	.L1:
  22:Core/Src/Drivers/Src/usart.c **** }
  84              		.loc 1 22 1 is_stmt 0 view .LVU18
  85 002e 03B0     		add	sp, sp, #12
  86              	.LCFI2:
  87              		.cfi_remember_state
  88              		.cfi_def_cfa_offset 4
  89              		@ sp needed
  90 0030 5DF804FB 		ldr	pc, [sp], #4
  91              	.LVL2:
  92              	.L6:
  93              	.LCFI3:
ARM GAS  C:\Users\CuongLe\AppData\Local\Temp\cckQqBXy.s 			page 3


  94              		.cfi_restore_state
  95              	.LBB2:
  15:Core/Src/Drivers/Src/usart.c ****     static const Event motor_sended_event = {.signal = COMMAND_SENDED_SIG};
  96              		.loc 1 15 5 is_stmt 1 view .LVU19
  16:Core/Src/Drivers/Src/usart.c ****   } else if(huart->Instance == USART3) {
  97              		.loc 1 16 5 view .LVU20
  16:Core/Src/Drivers/Src/usart.c ****   } else if(huart->Instance == USART3) {
  98              		.loc 1 16 13 is_stmt 0 view .LVU21
  99 0034 094B     		ldr	r3, .L8+8
 100 0036 1868     		ldr	r0, [r3]
 101              	.LVL3:
  16:Core/Src/Drivers/Src/usart.c ****   } else if(huart->Instance == USART3) {
 102              		.loc 1 16 13 view .LVU22
 103 0038 D0F8C830 		ldr	r3, [r0, #200]
  16:Core/Src/Drivers/Src/usart.c ****   } else if(huart->Instance == USART3) {
 104              		.loc 1 16 5 view .LVU23
 105 003c 01AA     		add	r2, sp, #4
 106 003e 0849     		ldr	r1, .L8+12
 107 0040 9847     		blx	r3
 108              	.LVL4:
 109              	.LBE2:
 110 0042 E8E7     		b	.L3
 111              	.LVL5:
 112              	.L7:
 113              	.LBB3:
  18:Core/Src/Drivers/Src/usart.c ****     static const Event sensor_event = {.signal = SENSOR_SENDED_SIG};
 114              		.loc 1 18 5 is_stmt 1 view .LVU24
  19:Core/Src/Drivers/Src/usart.c ****   }
 115              		.loc 1 19 5 view .LVU25
  19:Core/Src/Drivers/Src/usart.c ****   }
 116              		.loc 1 19 16 is_stmt 0 view .LVU26
 117 0044 074B     		ldr	r3, .L8+16
 118 0046 1868     		ldr	r0, [r3]
 119              	.LVL6:
  19:Core/Src/Drivers/Src/usart.c ****   }
 120              		.loc 1 19 16 view .LVU27
 121 0048 D0F8C830 		ldr	r3, [r0, #200]
  19:Core/Src/Drivers/Src/usart.c ****   }
 122              		.loc 1 19 5 view .LVU28
 123 004c 01AA     		add	r2, sp, #4
 124 004e 0649     		ldr	r1, .L8+20
 125 0050 9847     		blx	r3
 126              	.LVL7:
 127 0052 E0E7     		b	.L3
 128              	.L9:
 129              		.align	2
 130              	.L8:
 131 0054 00440040 		.word	1073759232
 132 0058 00480040 		.word	1073760256
 133 005c 00000000 		.word	AO_Motor
 134 0060 00000000 		.word	motor_sended_event.1
 135 0064 00000000 		.word	AO_Computer
 136 0068 00000000 		.word	sensor_event.0
 137              	.LBE3:
 138              		.cfi_endproc
 139              	.LFE288:
 141              		.section	.text.SendBuffer,"ax",%progbits
ARM GAS  C:\Users\CuongLe\AppData\Local\Temp\cckQqBXy.s 			page 4


 142              		.align	1
 143              		.global	SendBuffer
 144              		.syntax unified
 145              		.thumb
 146              		.thumb_func
 148              	SendBuffer:
 149              	.LVL8:
 150              	.LFB289:
  23:Core/Src/Drivers/Src/usart.c **** 
  24:Core/Src/Drivers/Src/usart.c **** void SendBuffer(UART_HandleTypeDef *huart, char* buffer) {
 151              		.loc 1 24 58 is_stmt 1 view -0
 152              		.cfi_startproc
 153              		@ args = 0, pretend = 0, frame = 0
 154              		@ frame_needed = 0, uses_anonymous_args = 0
 155              		.loc 1 24 58 is_stmt 0 view .LVU30
 156 0000 38B5     		push	{r3, r4, r5, lr}
 157              	.LCFI4:
 158              		.cfi_def_cfa_offset 16
 159              		.cfi_offset 3, -16
 160              		.cfi_offset 4, -12
 161              		.cfi_offset 5, -8
 162              		.cfi_offset 14, -4
 163 0002 0546     		mov	r5, r0
 164 0004 0C46     		mov	r4, r1
  25:Core/Src/Drivers/Src/usart.c ****     uint64_t length = strlen(buffer);
 165              		.loc 1 25 5 is_stmt 1 view .LVU31
 166              		.loc 1 25 23 is_stmt 0 view .LVU32
 167 0006 0846     		mov	r0, r1
 168              	.LVL9:
 169              		.loc 1 25 23 view .LVU33
 170 0008 FFF7FEFF 		bl	strlen
 171              	.LVL10:
  26:Core/Src/Drivers/Src/usart.c ****     HAL_UART_Transmit_IT(huart, (uint8_t*) buffer, length);
 172              		.loc 1 26 5 is_stmt 1 view .LVU34
 173 000c 82B2     		uxth	r2, r0
 174 000e 2146     		mov	r1, r4
 175 0010 2846     		mov	r0, r5
 176              	.LVL11:
 177              		.loc 1 26 5 is_stmt 0 view .LVU35
 178 0012 FFF7FEFF 		bl	HAL_UART_Transmit_IT
 179              	.LVL12:
  27:Core/Src/Drivers/Src/usart.c **** }
 180              		.loc 1 27 1 view .LVU36
 181 0016 38BD     		pop	{r3, r4, r5, pc}
 182              		.loc 1 27 1 view .LVU37
 183              		.cfi_endproc
 184              	.LFE289:
 186              		.section	.rodata.sensor_event.0,"a"
 187              		.align	2
 190              	sensor_event.0:
 191 0000 0400     		.short	4
 192              		.section	.rodata.motor_sended_event.1,"a"
 193              		.align	2
 196              	motor_sended_event.1:
 197 0000 0400     		.short	4
 198              		.text
 199              	.Letext0:
ARM GAS  C:\Users\CuongLe\AppData\Local\Temp\cckQqBXy.s 			page 5


 200              		.file 2 "D:/DATN/InvertedPendulum/Tool/ArmGnuToolchain/arm-none-eabi/include/machine/_default_type
 201              		.file 3 "D:/DATN/InvertedPendulum/Tool/ArmGnuToolchain/arm-none-eabi/include/sys/_stdint.h"
 202              		.file 4 "Drivers/CMSIS/Device/ST/STM32F4xx/Include/stm32f407xx.h"
 203              		.file 5 "D:/DATN/InvertedPendulum/Tool/ArmGnuToolchain/lib/gcc/arm-none-eabi/14.2.1/include/stddef
 204              		.file 6 "Drivers/STM32F4xx_HAL_Driver/Inc/stm32f4xx_hal_def.h"
 205              		.file 7 "Drivers/STM32F4xx_HAL_Driver/Inc/stm32f4xx_hal_dma.h"
 206              		.file 8 "Drivers/STM32F4xx_HAL_Driver/Inc/stm32f4xx_hal_uart.h"
 207              		.file 9 "Middlewares/Third_Party/ARM/FreeRTOS/portable/GCC/ARM_CM4F/portmacro.h"
 208              		.file 10 "Middlewares/Third_Party/ARM/FreeRTOS/include/FreeRTOS.h"
 209              		.file 11 "Middlewares/Third_Party/ARM/FreeRTOS/include/task.h"
 210              		.file 12 "Middlewares/Third_Party/ARM/FreeRTOS/include/queue.h"
 211              		.file 13 "Core/Src/Application/Inc/ActiveObject.h"
 212              		.file 14 "Core/Src/Application/Inc/Motor.h"
 213              		.file 15 "D:/DATN/InvertedPendulum/Tool/ArmGnuToolchain/arm-none-eabi/include/string.h"
 214              		.file 16 "Core/Src/Application/Inc/Computer.h"
ARM GAS  C:\Users\CuongLe\AppData\Local\Temp\cckQqBXy.s 			page 6


DEFINED SYMBOLS
                            *ABS*:00000000 usart.c
C:\Users\CuongLe\AppData\Local\Temp\cckQqBXy.s:21     .text.HAL_UART_TxCpltCallback:00000000 $t
C:\Users\CuongLe\AppData\Local\Temp\cckQqBXy.s:27     .text.HAL_UART_TxCpltCallback:00000000 HAL_UART_TxCpltCallback
C:\Users\CuongLe\AppData\Local\Temp\cckQqBXy.s:131    .text.HAL_UART_TxCpltCallback:00000054 $d
C:\Users\CuongLe\AppData\Local\Temp\cckQqBXy.s:196    .rodata.motor_sended_event.1:00000000 motor_sended_event.1
C:\Users\CuongLe\AppData\Local\Temp\cckQqBXy.s:190    .rodata.sensor_event.0:00000000 sensor_event.0
C:\Users\CuongLe\AppData\Local\Temp\cckQqBXy.s:142    .text.SendBuffer:00000000 $t
C:\Users\CuongLe\AppData\Local\Temp\cckQqBXy.s:148    .text.SendBuffer:00000000 SendBuffer
C:\Users\CuongLe\AppData\Local\Temp\cckQqBXy.s:187    .rodata.sensor_event.0:00000000 $d
C:\Users\CuongLe\AppData\Local\Temp\cckQqBXy.s:193    .rodata.motor_sended_event.1:00000000 $d

UNDEFINED SYMBOLS
AO_Motor
AO_Computer
strlen
HAL_UART_Transmit_IT
