ARM GAS  C:\Users\CuongLe\AppData\Local\Temp\cc0vzHK6.s 			page 1


   1              		.cpu cortex-m4
   2              		.arch armv7e-m
   3              		.fpu fpv4-sp-d16
   4              		.eabi_attribute 27, 1
   5              		.eabi_attribute 28, 1
   6              		.eabi_attribute 20, 1
   7              		.eabi_attribute 21, 1
   8              		.eabi_attribute 23, 3
   9              		.eabi_attribute 24, 1
  10              		.eabi_attribute 25, 1
  11              		.eabi_attribute 26, 1
  12              		.eabi_attribute 30, 1
  13              		.eabi_attribute 34, 1
  14              		.eabi_attribute 18, 4
  15              		.file	"usart.c"
  16              		.text
  17              	.Ltext0:
  18              		.cfi_sections	.debug_frame
  19              		.file 1 "Core/Src/Drivers/Src/usart.c"
  20              		.section	.text.HAL_UART_TxCpltCallback,"ax",%progbits
  21              		.align	1
  22              		.global	HAL_UART_TxCpltCallback
  23              		.syntax unified
  24              		.thumb
  25              		.thumb_func
  27              	HAL_UART_TxCpltCallback:
  28              	.LVL0:
  29              	.LFB288:
   1:Core/Src/Drivers/Src/usart.c **** #include "usart.h"
   2:Core/Src/Drivers/Src/usart.c **** 
   3:Core/Src/Drivers/Src/usart.c **** extern struct Active * AO_Computer;
   4:Core/Src/Drivers/Src/usart.c **** 
   5:Core/Src/Drivers/Src/usart.c **** /**
   6:Core/Src/Drivers/Src/usart.c ****   * @brief  Tx Transfer completed callbacks.
   7:Core/Src/Drivers/Src/usart.c ****   * @param  huart  Pointer to a UART_HandleTypeDef structure that contains
   8:Core/Src/Drivers/Src/usart.c ****   *                the configuration information for the specified UART module.
   9:Core/Src/Drivers/Src/usart.c ****   * @retval None
  10:Core/Src/Drivers/Src/usart.c ****   */
  11:Core/Src/Drivers/Src/usart.c **** void HAL_UART_TxCpltCallback(UART_HandleTypeDef *huart) {
  30              		.loc 1 11 57 view -0
  31              		.cfi_startproc
  32              		@ args = 0, pretend = 0, frame = 8
  33              		@ frame_needed = 0, uses_anonymous_args = 0
  34              		.loc 1 11 57 is_stmt 0 view .LVU1
  35 0000 00B5     		push	{lr}
  36              	.LCFI0:
  37              		.cfi_def_cfa_offset 4
  38              		.cfi_offset 14, -4
  39 0002 83B0     		sub	sp, sp, #12
  40              	.LCFI1:
  41              		.cfi_def_cfa_offset 16
  12:Core/Src/Drivers/Src/usart.c ****   BaseType_t xHigherPriorityTaskWoken = pdFALSE;
  42              		.loc 1 12 3 is_stmt 1 view .LVU2
  43              		.loc 1 12 14 is_stmt 0 view .LVU3
  44 0004 0023     		movs	r3, #0
  45 0006 0193     		str	r3, [sp, #4]
  13:Core/Src/Drivers/Src/usart.c ****   // if(huart->Instance == USART2) {
ARM GAS  C:\Users\CuongLe\AppData\Local\Temp\cc0vzHK6.s 			page 2


  14:Core/Src/Drivers/Src/usart.c **** 
  15:Core/Src/Drivers/Src/usart.c ****   // }
  16:Core/Src/Drivers/Src/usart.c ****   if(huart->Instance == USART3) {
  46              		.loc 1 16 3 is_stmt 1 view .LVU4
  47              		.loc 1 16 11 is_stmt 0 view .LVU5
  48 0008 0268     		ldr	r2, [r0]
  49              		.loc 1 16 5 view .LVU6
  50 000a 0D4B     		ldr	r3, .L6
  51 000c 9A42     		cmp	r2, r3
  52 000e 0ED0     		beq	.L5
  53              	.LVL1:
  54              	.L2:
  17:Core/Src/Drivers/Src/usart.c ****     static const Event sensor_event = {.signal = SENSOR_SENDED_SIG};
  18:Core/Src/Drivers/Src/usart.c ****     AO_Computer->postFromISR(AO_Computer, &sensor_event, &xHigherPriorityTaskWoken);
  19:Core/Src/Drivers/Src/usart.c ****   }
  20:Core/Src/Drivers/Src/usart.c ****   portEND_SWITCHING_ISR(xHigherPriorityTaskWoken);
  55              		.loc 1 20 3 is_stmt 1 view .LVU7
  56              		.loc 1 20 3 view .LVU8
  57 0010 019B     		ldr	r3, [sp, #4]
  58 0012 4BB1     		cbz	r3, .L1
  59              		.loc 1 20 3 discriminator 1 view .LVU9
  60 0014 4FF0E023 		mov	r3, #-536813568
  61 0018 4FF08052 		mov	r2, #268435456
  62 001c C3F8042D 		str	r2, [r3, #3332]
  63              		.loc 1 20 3 view .LVU10
  64              		.loc 1 20 3 is_stmt 0 discriminator 1 view .LVU11
  65              		.syntax unified
  66              	@ 20 "Core/Src/Drivers/Src/usart.c" 1
  67 0020 BFF34F8F 		dsb
  68              	@ 0 "" 2
  69              		.loc 1 20 3 is_stmt 1 view .LVU12
  70              		.loc 1 20 3 is_stmt 0 discriminator 1 view .LVU13
  71              	@ 20 "Core/Src/Drivers/Src/usart.c" 1
  72 0024 BFF36F8F 		isb
  73              	@ 0 "" 2
  74              		.loc 1 20 3 is_stmt 1 discriminator 3 view .LVU14
  75              		.loc 1 20 3 discriminator 3 view .LVU15
  76              		.thumb
  77              		.syntax unified
  78              	.L1:
  21:Core/Src/Drivers/Src/usart.c **** }
  79              		.loc 1 21 1 is_stmt 0 view .LVU16
  80 0028 03B0     		add	sp, sp, #12
  81              	.LCFI2:
  82              		.cfi_remember_state
  83              		.cfi_def_cfa_offset 4
  84              		@ sp needed
  85 002a 5DF804FB 		ldr	pc, [sp], #4
  86              	.LVL2:
  87              	.L5:
  88              	.LCFI3:
  89              		.cfi_restore_state
  90              	.LBB2:
  17:Core/Src/Drivers/Src/usart.c ****     static const Event sensor_event = {.signal = SENSOR_SENDED_SIG};
  91              		.loc 1 17 5 is_stmt 1 view .LVU17
  18:Core/Src/Drivers/Src/usart.c ****   }
  92              		.loc 1 18 5 view .LVU18
ARM GAS  C:\Users\CuongLe\AppData\Local\Temp\cc0vzHK6.s 			page 3


  18:Core/Src/Drivers/Src/usart.c ****   }
  93              		.loc 1 18 16 is_stmt 0 view .LVU19
  94 002e 054B     		ldr	r3, .L6+4
  95 0030 1868     		ldr	r0, [r3]
  96              	.LVL3:
  18:Core/Src/Drivers/Src/usart.c ****   }
  97              		.loc 1 18 16 view .LVU20
  98 0032 D0F8C830 		ldr	r3, [r0, #200]
  18:Core/Src/Drivers/Src/usart.c ****   }
  99              		.loc 1 18 5 view .LVU21
 100 0036 01AA     		add	r2, sp, #4
 101 0038 0349     		ldr	r1, .L6+8
 102 003a 9847     		blx	r3
 103              	.LVL4:
 104 003c E8E7     		b	.L2
 105              	.L7:
 106 003e 00BF     		.align	2
 107              	.L6:
 108 0040 00480040 		.word	1073760256
 109 0044 00000000 		.word	AO_Computer
 110 0048 00000000 		.word	sensor_event.0
 111              	.LBE2:
 112              		.cfi_endproc
 113              	.LFE288:
 115              		.section	.text.SendBuffer,"ax",%progbits
 116              		.align	1
 117              		.global	SendBuffer
 118              		.syntax unified
 119              		.thumb
 120              		.thumb_func
 122              	SendBuffer:
 123              	.LVL5:
 124              	.LFB289:
  22:Core/Src/Drivers/Src/usart.c **** 
  23:Core/Src/Drivers/Src/usart.c **** void SendBuffer(UART_HandleTypeDef *huart, char* buffer) {
 125              		.loc 1 23 58 is_stmt 1 view -0
 126              		.cfi_startproc
 127              		@ args = 0, pretend = 0, frame = 0
 128              		@ frame_needed = 0, uses_anonymous_args = 0
 129              		.loc 1 23 58 is_stmt 0 view .LVU23
 130 0000 38B5     		push	{r3, r4, r5, lr}
 131              	.LCFI4:
 132              		.cfi_def_cfa_offset 16
 133              		.cfi_offset 3, -16
 134              		.cfi_offset 4, -12
 135              		.cfi_offset 5, -8
 136              		.cfi_offset 14, -4
 137 0002 0546     		mov	r5, r0
 138 0004 0C46     		mov	r4, r1
  24:Core/Src/Drivers/Src/usart.c ****     uint64_t length = strlen(buffer);
 139              		.loc 1 24 5 is_stmt 1 view .LVU24
 140              		.loc 1 24 23 is_stmt 0 view .LVU25
 141 0006 0846     		mov	r0, r1
 142              	.LVL6:
 143              		.loc 1 24 23 view .LVU26
 144 0008 FFF7FEFF 		bl	strlen
 145              	.LVL7:
ARM GAS  C:\Users\CuongLe\AppData\Local\Temp\cc0vzHK6.s 			page 4


  25:Core/Src/Drivers/Src/usart.c ****     HAL_UART_Transmit_IT(huart, (uint8_t*) buffer, length);
 146              		.loc 1 25 5 is_stmt 1 view .LVU27
 147 000c 82B2     		uxth	r2, r0
 148 000e 2146     		mov	r1, r4
 149 0010 2846     		mov	r0, r5
 150              	.LVL8:
 151              		.loc 1 25 5 is_stmt 0 view .LVU28
 152 0012 FFF7FEFF 		bl	HAL_UART_Transmit_IT
 153              	.LVL9:
  26:Core/Src/Drivers/Src/usart.c **** }
 154              		.loc 1 26 1 view .LVU29
 155 0016 38BD     		pop	{r3, r4, r5, pc}
 156              		.loc 1 26 1 view .LVU30
 157              		.cfi_endproc
 158              	.LFE289:
 160              		.section	.rodata.sensor_event.0,"a"
 161              		.align	2
 164              	sensor_event.0:
 165 0000 0400     		.short	4
 166              		.text
 167              	.Letext0:
 168              		.file 2 "D:/InvertedPendulum/Tool/ArmGnuToolchain/arm-none-eabi/include/machine/_default_types.h"
 169              		.file 3 "D:/InvertedPendulum/Tool/ArmGnuToolchain/arm-none-eabi/include/sys/_stdint.h"
 170              		.file 4 "Drivers/CMSIS/Device/ST/STM32F4xx/Include/stm32f407xx.h"
 171              		.file 5 "D:/InvertedPendulum/Tool/ArmGnuToolchain/lib/gcc/arm-none-eabi/14.2.1/include/stddef.h"
 172              		.file 6 "Drivers/STM32F4xx_HAL_Driver/Inc/stm32f4xx_hal_def.h"
 173              		.file 7 "Drivers/STM32F4xx_HAL_Driver/Inc/stm32f4xx_hal_dma.h"
 174              		.file 8 "Drivers/STM32F4xx_HAL_Driver/Inc/stm32f4xx_hal_uart.h"
 175              		.file 9 "Middlewares/Third_Party/ARM/FreeRTOS/portable/GCC/ARM_CM4F/portmacro.h"
 176              		.file 10 "Middlewares/Third_Party/ARM/FreeRTOS/include/FreeRTOS.h"
 177              		.file 11 "Middlewares/Third_Party/ARM/FreeRTOS/include/task.h"
 178              		.file 12 "Middlewares/Third_Party/ARM/FreeRTOS/include/queue.h"
 179              		.file 13 "Core/Src/Application/Inc/ActiveObject.h"
 180              		.file 14 "D:/InvertedPendulum/Tool/ArmGnuToolchain/arm-none-eabi/include/string.h"
 181              		.file 15 "Core/Src/Application/Inc/computer.h"
ARM GAS  C:\Users\CuongLe\AppData\Local\Temp\cc0vzHK6.s 			page 5

